
/home/keyming/Prophet/testcase/bh/bh.out:     file format ecoff-littlemips


Disassembly of section .text:

bfc00000 <__start>:
bfc00000:	0bf00080 	j	bfc00200 <begin>
bfc00004:	00000000 	nop
	...
bfc00100:	0000000d 	break
	...
bfc00180:	0000000d 	break
	...

bfc00200 <begin>:
bfc00200:	00000821 	move	at,zero
bfc00204:	00001021 	move	v0,zero
bfc00208:	00001821 	move	v1,zero
bfc0020c:	00002021 	move	a0,zero
bfc00210:	00002821 	move	a1,zero
bfc00214:	00003021 	move	a2,zero
bfc00218:	00003821 	move	a3,zero
bfc0021c:	00004021 	move	t0,zero
bfc00220:	00004821 	move	t1,zero
bfc00224:	00005021 	move	t2,zero
bfc00228:	00005821 	move	t3,zero
bfc0022c:	00006021 	move	t4,zero
bfc00230:	00006821 	move	t5,zero
bfc00234:	00007021 	move	t6,zero
bfc00238:	00007821 	move	t7,zero
bfc0023c:	00008021 	move	s0,zero
bfc00240:	00008821 	move	s1,zero
bfc00244:	00009021 	move	s2,zero
bfc00248:	00009821 	move	s3,zero
bfc0024c:	0000a021 	move	s4,zero
bfc00250:	0000a821 	move	s5,zero
bfc00254:	0000b021 	move	s6,zero
bfc00258:	0000b821 	move	s7,zero
bfc0025c:	0000c021 	move	t8,zero
bfc00260:	0000c821 	move	t9,zero
bfc00264:	0000d021 	move	k0,zero
bfc00268:	0000d821 	move	k1,zero
bfc0026c:	0000e021 	move	gp,zero
bfc00270:	0000e821 	move	sp,zero
bfc00274:	0000f021 	move	s8,zero
bfc00278:	40802000 	mtc0	zero,c0_context
bfc0027c:	40804000 	mtc0	zero,c0_badvaddr
bfc00280:	40807000 	mtc0	zero,c0_epc
bfc00284:	240a0040 	li	t2,64
bfc00288:	240b0fc0 	li	t3,4032
bfc0028c:	254affff 	addiu	t2,t2,-1
bfc00290:	000a4a00 	sll	t1,t2,0x8
bfc00294:	40890000 	mtc0	t1,c0_index
bfc00298:	40801000 	mtc0	zero,c0_entrylo
bfc0029c:	408b5000 	mtc0	t3,c0_entryhi
bfc002a0:	42000002 	tlbwi
bfc002a4:	1540fff9 	bnez	t2,bfc0028c <begin+0x8c>
bfc002a8:	00000000 	nop
bfc002ac:	40805000 	mtc0	zero,c0_entryhi
bfc002b0:	3c1da00b 	lui	sp,0xa00b
bfc002b4:	37bdfffc 	ori	sp,sp,0xfffc
bfc002b8:	3c1ea00b 	lui	s8,0xa00b
bfc002bc:	37defffc 	ori	s8,s8,0xfffc
bfc002c0:	3c1ca00c 	lui	gp,0xa00c
bfc002c4:	279c0000 	addiu	gp,gp,0
bfc002c8:	3c09bfc1 	lui	t1,0xbfc1
bfc002cc:	25299230 	addiu	t1,t1,-28112
bfc002d0:	3c0abfc1 	lui	t2,0xbfc1
bfc002d4:	254a98d0 	addiu	t2,t2,-26416
bfc002d8:	03805821 	move	t3,gp
bfc002dc:	8d2c0000 	lw	t4,0(t1)
bfc002e0:	ad6c0000 	sw	t4,0(t3)
bfc002e4:	25290004 	addiu	t1,t1,4
bfc002e8:	256b0004 	addiu	t3,t3,4
bfc002ec:	152afffb 	bne	t1,t2,bfc002dc <begin+0xdc>
bfc002f0:	00000000 	nop
bfc002f4:	03a0f021 	move	s8,sp
bfc002f8:	03a0003e 	fst	sp
bfc002fc:	0ff01d24 	jal	bfc07490 <entry>
bfc00300:	00000000 	nop
bfc00304:	0000000d 	break
	...

bfc00310 <malloc>:
bfc00310:	b3f000cd 	spawn	bfc00334 <malloc+0x24>
bfc00314:	27bdff78 	addiu	sp,sp,-136
bfc00318:	0000003f 	ust
bfc0031c:	afbe0000 	sw	s8,0(sp)
bfc00320:	00044083 	sra	t0,a0,0x2
bfc00324:	00084880 	sll	t1,t0,0x2
bfc00328:	25240004 	addiu	a0,t1,4
bfc0032c:	0000034c 	syscall	0xd
bfc00330:	4bf000cd 	cqip	bfc00334 <malloc+0x24>
bfc00334:	53f000cd 	pslice_entry	bfc00334 <malloc+0x24>
bfc00338:	57f000cd 	pslice_exit	bfc00334 <malloc+0x24>
bfc0033c:	b3f000d9 	spawn	bfc00364 <malloc+0x54>
bfc00340:	3c0aa00c 	lui	t2,0xa00c
bfc00344:	8d4a0010 	lw	t2,16(t2)
bfc00348:	01445821 	addu	t3,t2,a0
bfc0034c:	3c01a00c 	lui	at,0xa00c
bfc00350:	ac2b0010 	sw	t3,16(at)
bfc00354:	3c0ca00c 	lui	t4,0xa00c
bfc00358:	8d8c0010 	lw	t4,16(t4)
bfc0035c:	0000038c 	syscall	0xe
bfc00360:	4bf000d9 	cqip	bfc00364 <malloc+0x54>
bfc00364:	53f000d9 	pslice_entry	bfc00364 <malloc+0x54>
bfc00368:	57f000d9 	pslice_exit	bfc00364 <malloc+0x54>
bfc0036c:	01841023 	subu	v0,t4,a0
bfc00370:	8fbd0000 	lw	sp,0(sp)
bfc00374:	03e00008 	jr	ra
bfc00378:	00000000 	nop

bfc0037c <free>:
bfc0037c:	27bdff78 	addiu	sp,sp,-136
bfc00380:	0000003f 	ust
bfc00384:	afbe0000 	sw	s8,0(sp)
bfc00388:	8fbd0000 	lw	sp,0(sp)
bfc0038c:	03e00008 	jr	ra
bfc00390:	00000000 	nop

bfc00394 <newMalloc>:
bfc00394:	27bdff78 	addiu	sp,sp,-136
bfc00398:	0000003f 	ust
bfc0039c:	afbe0000 	sw	s8,0(sp)
bfc003a0:	000002cc 	syscall	0xb
bfc003a4:	8fbd0000 	lw	sp,0(sp)
bfc003a8:	03e00008 	jr	ra
bfc003ac:	00000000 	nop

bfc003b0 <newFree>:
bfc003b0:	27bdff78 	addiu	sp,sp,-136
bfc003b4:	0000003f 	ust
bfc003b8:	afbe0000 	sw	s8,0(sp)
bfc003bc:	0000030c 	syscall	0xc
bfc003c0:	8fbd0000 	lw	sp,0(sp)
bfc003c4:	03e00008 	jr	ra
bfc003c8:	00000000 	nop

bfc003cc <myprintf>:
bfc003cc:	b3f000f9 	spawn	bfc003e4 <myprintf+0x18>
bfc003d0:	27bdff80 	addiu	sp,sp,-128
bfc003d4:	0000003f 	ust
bfc003d8:	afbe0000 	sw	s8,0(sp)
bfc003dc:	0000004c 	syscall	0x1
bfc003e0:	4bf000f9 	cqip	bfc003e4 <myprintf+0x18>
bfc003e4:	53f000f9 	pslice_entry	bfc003e4 <myprintf+0x18>
bfc003e8:	57f000f9 	pslice_exit	bfc003e4 <myprintf+0x18>
bfc003ec:	24020001 	li	v0,1
bfc003f0:	03c0e821 	move	sp,s8
bfc003f4:	03e00008 	jr	ra
bfc003f8:	00000000 	nop

bfc003fc <myprintf1>:
bfc003fc:	b3f00105 	spawn	bfc00414 <myprintf1+0x18>
bfc00400:	27bdff80 	addiu	sp,sp,-128
bfc00404:	0000003f 	ust
bfc00408:	afbe0000 	sw	s8,0(sp)
bfc0040c:	0000008c 	syscall	0x2
bfc00410:	4bf00105 	cqip	bfc00414 <myprintf1+0x18>
bfc00414:	53f00105 	pslice_entry	bfc00414 <myprintf1+0x18>
bfc00418:	57f00105 	pslice_exit	bfc00414 <myprintf1+0x18>
bfc0041c:	24020001 	li	v0,1
bfc00420:	03c0e821 	move	sp,s8
bfc00424:	03e00008 	jr	ra
bfc00428:	00000000 	nop

bfc0042c <myprintf2>:
bfc0042c:	b3f00111 	spawn	bfc00444 <myprintf2+0x18>
bfc00430:	27bdff80 	addiu	sp,sp,-128
bfc00434:	0000003f 	ust
bfc00438:	afbe0000 	sw	s8,0(sp)
bfc0043c:	000000cc 	syscall	0x3
bfc00440:	4bf00111 	cqip	bfc00444 <myprintf2+0x18>
bfc00444:	53f00111 	pslice_entry	bfc00444 <myprintf2+0x18>
bfc00448:	57f00111 	pslice_exit	bfc00444 <myprintf2+0x18>
bfc0044c:	24020001 	li	v0,1
bfc00450:	03c0e821 	move	sp,s8
bfc00454:	03e00008 	jr	ra
bfc00458:	00000000 	nop

bfc0045c <exit>:
bfc0045c:	0000003f 	ust
bfc00460:	0bf00060 	j	bfc00180 <__start+0x180>
bfc00464:	00000000 	nop

bfc00468 <myprintf3>:
bfc00468:	27bdff80 	addiu	sp,sp,-128
bfc0046c:	0000003f 	ust
bfc00470:	afbe0000 	sw	s8,0(sp)
bfc00474:	0000010c 	syscall	0x4
bfc00478:	24020001 	li	v0,1
bfc0047c:	8fbd0000 	lw	sp,0(sp)
bfc00480:	03e00008 	jr	ra
bfc00484:	00000000 	nop

bfc00488 <myprintf4>:
bfc00488:	27bdff80 	addiu	sp,sp,-128
bfc0048c:	0000003f 	ust
bfc00490:	afbe0000 	sw	s8,0(sp)
bfc00494:	44866000 	mtc1	a2,$f12
bfc00498:	44876800 	mtc1	a3,$f13
bfc0049c:	0000014c 	syscall	0x5
bfc004a0:	24020001 	li	v0,1
bfc004a4:	8fbd0000 	lw	sp,0(sp)
bfc004a8:	03e00008 	jr	ra
bfc004ac:	00000000 	nop

bfc004b0 <myprintf5>:
bfc004b0:	27bdff80 	addiu	sp,sp,-128
bfc004b4:	0000003f 	ust
bfc004b8:	afbe0000 	sw	s8,0(sp)
bfc004bc:	44866000 	mtc1	a2,$f12
bfc004c0:	44876800 	mtc1	a3,$f13
bfc004c4:	c7ae0068 	lwc1	$f14,104(sp)
bfc004c8:	c7af006c 	lwc1	$f15,108(sp)
bfc004cc:	0000018c 	syscall	0x6
bfc004d0:	24020001 	li	v0,1
bfc004d4:	8fbd0000 	lw	sp,0(sp)
bfc004d8:	03e00008 	jr	ra
bfc004dc:	00000000 	nop

bfc004e0 <myprintf6>:
bfc004e0:	27bdff80 	addiu	sp,sp,-128
bfc004e4:	0000003f 	ust
bfc004e8:	afbe0000 	sw	s8,0(sp)
bfc004ec:	000001cc 	syscall	0x7
bfc004f0:	24020001 	li	v0,1
bfc004f4:	8fbd0000 	lw	sp,0(sp)
bfc004f8:	03e00008 	jr	ra
bfc004fc:	00000000 	nop

bfc00500 <rand>:
bfc00500:	b3f00157 	spawn	bfc0055c <rand+0x5c>
bfc00504:	b3f00146 	spawn	bfc00518 <rand+0x18>
bfc00508:	27bdfff8 	addiu	sp,sp,-8
bfc0050c:	0000003f 	ust
bfc00510:	afbe0000 	sw	s8,0(sp)
bfc00514:	4bf00146 	cqip	bfc00518 <rand+0x18>
bfc00518:	53f00146 	pslice_entry	bfc00518 <rand+0x18>
bfc0051c:	57f00146 	pslice_exit	bfc00518 <rand+0x18>
bfc00520:	8f890330 	lw	t1,816(gp)
bfc00524:	3c01015a 	lui	at,0x15a
bfc00528:	34214e35 	ori	at,at,0x4e35
bfc0052c:	01210019 	multu	t1,at
bfc00530:	00000810 	mfhi	at
bfc00534:	00005012 	mflo	t2
bfc00538:	10200002 	beqz	at,bfc00544 <rand+0x44>
bfc0053c:	00000000 	nop
bfc00540:	0006000d 	break	0x6
bfc00544:	254b0001 	addiu	t3,t2,1
bfc00548:	af8b0330 	sw	t3,816(gp)
bfc0054c:	8f8c0330 	lw	t4,816(gp)
bfc00550:	000c4403 	sra	t0,t4,0x10
bfc00554:	31027fff 	andi	v0,t0,0x7fff
bfc00558:	4bf00157 	cqip	bfc0055c <rand+0x5c>
bfc0055c:	53f00157 	pslice_entry	bfc0055c <rand+0x5c>
bfc00560:	57f00157 	pslice_exit	bfc0055c <rand+0x5c>
bfc00564:	03c0e821 	move	sp,s8
bfc00568:	03e00008 	jr	ra
bfc0056c:	00000000 	nop

bfc00570 <srand>:
bfc00570:	b3f00161 	spawn	bfc00584 <srand+0x14>
bfc00574:	27bdfff8 	addiu	sp,sp,-8
bfc00578:	0000003f 	ust
bfc0057c:	afbe0000 	sw	s8,0(sp)
bfc00580:	4bf00161 	cqip	bfc00584 <srand+0x14>
bfc00584:	53f00161 	pslice_entry	bfc00584 <srand+0x14>
bfc00588:	57f00161 	pslice_exit	bfc00584 <srand+0x14>
bfc0058c:	af840330 	sw	a0,816(gp)
bfc00590:	03c0e821 	move	sp,s8
bfc00594:	03e00008 	jr	ra
bfc00598:	00000000 	nop

bfc0059c <coef>:
bfc0059c:	b3f00177 	spawn	bfc005dc <coef+0x40>
bfc005a0:	27bdffb8 	addiu	sp,sp,-72
bfc005a4:	0000003f 	ust
bfc005a8:	afbe0000 	sw	s8,0(sp)
bfc005ac:	00004021 	move	t0,zero
bfc005b0:	00884826 	xor	t1,a0,t0
bfc005b4:	2d290001 	sltiu	t1,t1,1
bfc005b8:	11200007 	beqz	t1,bfc005d8 <coef+0x3c>
bfc005bc:	00000000 	nop
bfc005c0:	24010000 	li	at,0
bfc005c4:	44810800 	mtc1	at,$f1
bfc005c8:	44800000 	mtc1	zero,$f0
bfc005cc:	8fbd0000 	lw	sp,0(sp)
bfc005d0:	03e00008 	jr	ra
bfc005d4:	00000000 	nop
bfc005d8:	4bf00177 	cqip	bfc005dc <coef+0x40>
bfc005dc:	53f00177 	pslice_entry	bfc005dc <coef+0x40>
bfc005e0:	57f00177 	pslice_exit	bfc005dc <coef+0x40>
bfc005e4:	b3f00182 	spawn	bfc00608 <coef+0x6c>
bfc005e8:	3c013ff0 	lui	at,0x3ff0
bfc005ec:	44815800 	mtc1	at,$f11
bfc005f0:	44805000 	mtc1	zero,$f10
bfc005f4:	44848000 	mtc1	a0,$f16
bfc005f8:	00006021 	move	t4,zero
bfc005fc:	46808421 	cvt.d.w	$f16,$f16
bfc00600:	46305003 	div.d	$f0,$f10,$f16
bfc00604:	4bf00182 	cqip	bfc00608 <coef+0x6c>
bfc00608:	53f00182 	pslice_entry	bfc00608 <coef+0x6c>
bfc0060c:	57f00182 	pslice_exit	bfc00608 <coef+0x6c>
bfc00610:	240a0002 	li	t2,2
bfc00614:	15400002 	bnez	t2,bfc00620 <coef+0x84>
bfc00618:	008a001a 	div	zero,a0,t2
bfc0061c:	0007000d 	break	0x7
bfc00620:	2401ffff 	li	at,-1
bfc00624:	15410004 	bne	t2,at,bfc00638 <coef+0x9c>
bfc00628:	3c018000 	lui	at,0x8000
bfc0062c:	14810002 	bne	a0,at,bfc00638 <coef+0x9c>
bfc00630:	00000000 	nop
bfc00634:	0006000d 	break	0x6
bfc00638:	00005810 	mfhi	t3
bfc0063c:	016c6826 	xor	t5,t3,t4
bfc00640:	2dad0001 	sltiu	t5,t5,1
bfc00644:	11a00002 	beqz	t5,bfc00650 <coef+0xb4>
bfc00648:	00000000 	nop
bfc0064c:	46200007 	neg.d	$f0,$f0
bfc00650:	8fbd0000 	lw	sp,0(sp)
bfc00654:	03e00008 	jr	ra
bfc00658:	00000000 	nop

bfc0065c <horner>:
bfc0065c:	b3f001ab 	spawn	bfc006ac <horner+0x50>
bfc00660:	27bdff68 	addiu	sp,sp,-152
bfc00664:	0000003f 	ust
bfc00668:	afbe0000 	sw	s8,0(sp)
bfc0066c:	afbf0004 	sw	ra,4(sp)
bfc00670:	afb00008 	sw	s0,8(sp)
bfc00674:	e7b40010 	swc1	$f20,16(sp)
bfc00678:	e7b50014 	swc1	$f21,20(sp)
bfc0067c:	e7b60018 	swc1	$f22,24(sp)
bfc00680:	e7b7001c 	swc1	$f23,28(sp)
bfc00684:	46206506 	mov.d	$f20,$f12
bfc00688:	3c08bfc0 	lui	t0,0xbfc0
bfc0068c:	2508059c 	addiu	t0,t0,1436
bfc00690:	27990334 	addiu	t9,gp,820
bfc00694:	03a0f021 	move	s8,sp
bfc00698:	8f240000 	lw	a0,0(t9)
bfc0069c:	03a0003e 	fst	sp
bfc006a0:	03e04009 	jalr	t0,ra
bfc006a4:	00000000 	nop
bfc006a8:	4bf001ab 	cqip	bfc006ac <horner+0x50>
bfc006ac:	53f001ab 	pslice_entry	bfc006ac <horner+0x50>
bfc006b0:	57f001ab 	pslice_exit	bfc006ac <horner+0x50>
bfc006b4:	00002021 	move	a0,zero
bfc006b8:	27850334 	addiu	a1,gp,820
bfc006bc:	24070001 	li	a3,1
bfc006c0:	8ca60000 	lw	a2,0(a1)
bfc006c4:	00c71023 	subu	v0,a2,a3
bfc006c8:	0044182a 	slt	v1,v0,a0
bfc006cc:	38630001 	xori	v1,v1,0x1
bfc006d0:	1060001e 	beqz	v1,bfc0074c <horner+0xf0>
bfc006d4:	00000000 	nop
bfc006d8:	27880334 	addiu	t0,gp,820
bfc006dc:	240a0001 	li	t2,1
bfc006e0:	8d090000 	lw	t1,0(t0)
bfc006e4:	012a8023 	subu	s0,t1,t2
bfc006e8:	46340582 	mul.d	$f22,$f0,$f20
bfc006ec:	3c08bfc0 	lui	t0,0xbfc0
bfc006f0:	2508059c 	addiu	t0,t0,1436
bfc006f4:	02002021 	move	a0,s0
bfc006f8:	03a0f021 	move	s8,sp
bfc006fc:	03a0003e 	fst	sp
bfc00700:	03e04009 	jalr	t0,ra
bfc00704:	00000000 	nop
bfc00708:	b3f001c9 	spawn	bfc00724 <horner+0xc8>
bfc0070c:	4620b000 	add.d	$f0,$f22,$f0
bfc00710:	240bffff 	li	t3,-1
bfc00714:	00006021 	move	t4,zero
bfc00718:	020b8021 	addu	s0,s0,t3
bfc0071c:	020c682a 	slt	t5,s0,t4
bfc00720:	4bf001c9 	cqip	bfc00724 <horner+0xc8>
bfc00724:	53f001c9 	pslice_entry	bfc00724 <horner+0xc8>
bfc00728:	240bffff 	li	t3,-1
bfc0072c:	00006021 	move	t4,zero
bfc00730:	020b8021 	addu	s0,s0,t3
bfc00734:	020c682a 	slt	t5,s0,t4
bfc00738:	57f001c9 	pslice_exit	bfc00724 <horner+0xc8>
bfc0073c:	11a0ffea 	beqz	t5,bfc006e8 <horner+0x8c>
bfc00740:	00000000 	nop
bfc00744:	0bf001d7 	j	bfc0075c <horner+0x100>
bfc00748:	00000000 	nop
bfc0074c:	278e0334 	addiu	t6,gp,820
bfc00750:	24180001 	li	t8,1
bfc00754:	8dcf0000 	lw	t7,0(t6)
bfc00758:	01f88023 	subu	s0,t7,t8
bfc0075c:	8fbf0004 	lw	ra,4(sp)
bfc00760:	8fb00008 	lw	s0,8(sp)
bfc00764:	c7b40010 	lwc1	$f20,16(sp)
bfc00768:	c7b50014 	lwc1	$f21,20(sp)
bfc0076c:	c7b60018 	lwc1	$f22,24(sp)
bfc00770:	c7b7001c 	lwc1	$f23,28(sp)
bfc00774:	8fbd0000 	lw	sp,0(sp)
bfc00778:	03e00008 	jr	ra
bfc0077c:	00000000 	nop

bfc00780 <sqrt>:
bfc00780:	b3f00203 	spawn	bfc0080c <sqrt+0x8c>
bfc00784:	27bdff48 	addiu	sp,sp,-184
bfc00788:	0000003f 	ust
bfc0078c:	afbe0000 	sw	s8,0(sp)
bfc00790:	3c013ff0 	lui	at,0x3ff0
bfc00794:	44810800 	mtc1	at,$f1
bfc00798:	44800000 	mtc1	zero,$f0
bfc0079c:	00002021 	move	a0,zero
bfc007a0:	c7820570 	lwc1	$f2,1392(gp)
bfc007a4:	c7830574 	lwc1	$f3,1396(gp)
bfc007a8:	24190001 	li	t9,1
bfc007ac:	46200382 	mul.d	$f14,$f0,$f0
bfc007b0:	462c7381 	sub.d	$f14,$f14,$f12
bfc007b4:	4622703c 	c.lt.d	$f14,$f2
bfc007b8:	4501000c 	bc1t	bfc007ec <sqrt+0x6c>
bfc007bc:	00000000 	nop
bfc007c0:	c7820578 	lwc1	$f2,1400(gp)
bfc007c4:	c783057c 	lwc1	$f3,1404(gp)
bfc007c8:	46200102 	mul.d	$f4,$f0,$f0
bfc007cc:	24190001 	li	t9,1
bfc007d0:	462c2101 	sub.d	$f4,$f4,$f12
bfc007d4:	4624103c 	c.lt.d	$f2,$f4
bfc007d8:	45010004 	bc1t	bfc007ec <sqrt+0x6c>
bfc007dc:	00000000 	nop
bfc007e0:	8fbd0000 	lw	sp,0(sp)
bfc007e4:	03e00008 	jr	ra
bfc007e8:	00000000 	nop
bfc007ec:	24050032 	li	a1,50
bfc007f0:	0085c82a 	slt	t9,a0,a1
bfc007f4:	17200004 	bnez	t9,bfc00808 <sqrt+0x88>
bfc007f8:	00000000 	nop
bfc007fc:	8fbd0000 	lw	sp,0(sp)
bfc00800:	03e00008 	jr	ra
bfc00804:	00000000 	nop
bfc00808:	4bf00203 	cqip	bfc0080c <sqrt+0x8c>
bfc0080c:	53f00203 	pslice_entry	bfc0080c <sqrt+0x8c>
bfc00810:	3c013ff0 	lui	at,0x3ff0
bfc00814:	44810800 	mtc1	at,$f1
bfc00818:	44800000 	mtc1	zero,$f0
bfc0081c:	57f00203 	pslice_exit	bfc0080c <sqrt+0x8c>
bfc00820:	b3f00227 	spawn	bfc0089c <sqrt+0x11c>
bfc00824:	46206103 	div.d	$f4,$f12,$f0
bfc00828:	3c014000 	lui	at,0x4000
bfc0082c:	44813800 	mtc1	at,$f7
bfc00830:	44803000 	mtc1	zero,$f6
bfc00834:	46202100 	add.d	$f4,$f4,$f0
bfc00838:	46262003 	div.d	$f0,$f4,$f6
bfc0083c:	24190001 	li	t9,1
bfc00840:	24060001 	li	a2,1
bfc00844:	00862021 	addu	a0,a0,a2
bfc00848:	c78a0580 	lwc1	$f10,1408(gp)
bfc0084c:	c78b0584 	lwc1	$f11,1412(gp)
bfc00850:	46200182 	mul.d	$f6,$f0,$f0
bfc00854:	462c3201 	sub.d	$f8,$f6,$f12
bfc00858:	462a403c 	c.lt.d	$f8,$f10
bfc0085c:	4501000c 	bc1t	bfc00890 <sqrt+0x110>
bfc00860:	00000000 	nop
bfc00864:	c78a0588 	lwc1	$f10,1416(gp)
bfc00868:	c78b058c 	lwc1	$f11,1420(gp)
bfc0086c:	46200402 	mul.d	$f16,$f0,$f0
bfc00870:	24190001 	li	t9,1
bfc00874:	462c8401 	sub.d	$f16,$f16,$f12
bfc00878:	4630503c 	c.lt.d	$f10,$f16
bfc0087c:	45010004 	bc1t	bfc00890 <sqrt+0x110>
bfc00880:	00000000 	nop
bfc00884:	0000c821 	move	t9,zero
bfc00888:	0bf00226 	j	bfc00898 <sqrt+0x118>
bfc0088c:	00000000 	nop
bfc00890:	24070032 	li	a3,50
bfc00894:	0087c82a 	slt	t9,a0,a3
bfc00898:	4bf00227 	cqip	bfc0089c <sqrt+0x11c>
bfc0089c:	53f00227 	pslice_entry	bfc0089c <sqrt+0x11c>
bfc008a0:	46206103 	div.d	$f4,$f12,$f0
bfc008a4:	3c014000 	lui	at,0x4000
bfc008a8:	44813800 	mtc1	at,$f7
bfc008ac:	44803000 	mtc1	zero,$f6
bfc008b0:	24190001 	li	t9,1
bfc008b4:	46202100 	add.d	$f4,$f4,$f0
bfc008b8:	46262003 	div.d	$f0,$f4,$f6
bfc008bc:	57f00227 	pslice_exit	bfc0089c <sqrt+0x11c>
bfc008c0:	1720ffd7 	bnez	t9,bfc00820 <sqrt+0xa0>
bfc008c4:	00000000 	nop
bfc008c8:	8fbd0000 	lw	sp,0(sp)
bfc008cc:	03e00008 	jr	ra
bfc008d0:	00000000 	nop

bfc008d4 <ln>:
bfc008d4:	27bdfeb8 	addiu	sp,sp,-328
bfc008d8:	0000003f 	ust
bfc008dc:	afbe0000 	sw	s8,0(sp)
bfc008e0:	afbf0004 	sw	ra,4(sp)
bfc008e4:	afb00008 	sw	s0,8(sp)
bfc008e8:	e7b40010 	swc1	$f20,16(sp)
bfc008ec:	e7b50014 	swc1	$f21,20(sp)
bfc008f0:	3c013ff8 	lui	at,0x3ff8
bfc008f4:	44815800 	mtc1	at,$f11
bfc008f8:	44805000 	mtc1	zero,$f10
bfc008fc:	24040001 	li	a0,1
bfc00900:	462c503c 	c.lt.d	$f10,$f12
bfc00904:	45010002 	bc1t	bfc00910 <ln+0x3c>
bfc00908:	00000000 	nop
bfc0090c:	00002021 	move	a0,zero
bfc00910:	1080003e 	beqz	a0,bfc00a0c <ln+0x138>
bfc00914:	00000000 	nop
bfc00918:	00008021 	move	s0,zero
bfc0091c:	b3f00251 	spawn	bfc00944 <ln+0x70>
bfc00920:	3c013ff4 	lui	at,0x3ff4
bfc00924:	44815800 	mtc1	at,$f11
bfc00928:	44805000 	mtc1	zero,$f10
bfc0092c:	24050001 	li	a1,1
bfc00930:	462c503c 	c.lt.d	$f10,$f12
bfc00934:	45010002 	bc1t	bfc00940 <ln+0x6c>
bfc00938:	00000000 	nop
bfc0093c:	00002821 	move	a1,zero
bfc00940:	4bf00251 	cqip	bfc00944 <ln+0x70>
bfc00944:	53f00251 	pslice_entry	bfc00944 <ln+0x70>
bfc00948:	57f00251 	pslice_exit	bfc00944 <ln+0x70>
bfc0094c:	10a00019 	beqz	a1,bfc009b4 <ln+0xe0>
bfc00950:	00000000 	nop
bfc00954:	b3f00268 	spawn	bfc009a0 <ln+0xcc>
bfc00958:	3c08bfc0 	lui	t0,0xbfc0
bfc0095c:	25080780 	addiu	t0,t0,1920
bfc00960:	03a0f021 	move	s8,sp
bfc00964:	03a0003e 	fst	sp
bfc00968:	03e04009 	jalr	t0,ra
bfc0096c:	00000000 	nop
bfc00970:	46200306 	mov.d	$f12,$f0
bfc00974:	24060001 	li	a2,1
bfc00978:	3c013ff4 	lui	at,0x3ff4
bfc0097c:	44818800 	mtc1	at,$f17
bfc00980:	44808000 	mtc1	zero,$f16
bfc00984:	24070001 	li	a3,1
bfc00988:	02068021 	addu	s0,s0,a2
bfc0098c:	462c803c 	c.lt.d	$f16,$f12
bfc00990:	45010002 	bc1t	bfc0099c <ln+0xc8>
bfc00994:	00000000 	nop
bfc00998:	00003821 	move	a3,zero
bfc0099c:	4bf00268 	cqip	bfc009a0 <ln+0xcc>
bfc009a0:	53f00268 	pslice_entry	bfc009a0 <ln+0xcc>
bfc009a4:	00003821 	move	a3,zero
bfc009a8:	57f00268 	pslice_exit	bfc009a0 <ln+0xcc>
bfc009ac:	14e0ffe9 	bnez	a3,bfc00954 <ln+0x80>
bfc009b0:	00000000 	nop
bfc009b4:	24020001 	li	v0,1
bfc009b8:	3c08bfc0 	lui	t0,0xbfc0
bfc009bc:	2508065c 	addiu	t0,t0,1628
bfc009c0:	3c013ff0 	lui	at,0x3ff0
bfc009c4:	44819800 	mtc1	at,$f19
bfc009c8:	44809000 	mtc1	zero,$f18
bfc009cc:	03a0f021 	move	s8,sp
bfc009d0:	02021804 	sllv	v1,v0,s0
bfc009d4:	46326301 	sub.d	$f12,$f12,$f18
bfc009d8:	03a0003e 	fst	sp
bfc009dc:	44838000 	mtc1	v1,$f16
bfc009e0:	46808521 	cvt.d.w	$f20,$f16
bfc009e4:	03e04009 	jalr	t0,ra
bfc009e8:	00000000 	nop
bfc009ec:	4620a002 	mul.d	$f0,$f20,$f0
bfc009f0:	8fbf0004 	lw	ra,4(sp)
bfc009f4:	8fb00008 	lw	s0,8(sp)
bfc009f8:	c7b40010 	lwc1	$f20,16(sp)
bfc009fc:	c7b50014 	lwc1	$f21,20(sp)
bfc00a00:	8fbd0000 	lw	sp,0(sp)
bfc00a04:	03e00008 	jr	ra
bfc00a08:	00000000 	nop
bfc00a0c:	c7920590 	lwc1	$f18,1424(gp)
bfc00a10:	c7930594 	lwc1	$f19,1428(gp)
bfc00a14:	24190001 	li	t9,1
bfc00a18:	4632603c 	c.lt.d	$f12,$f18
bfc00a1c:	45010002 	bc1t	bfc00a28 <ln+0x154>
bfc00a20:	00000000 	nop
bfc00a24:	0000c821 	move	t9,zero
bfc00a28:	17200003 	bnez	t9,bfc00a38 <ln+0x164>
bfc00a2c:	00000000 	nop
bfc00a30:	0bf00296 	j	bfc00a58 <ln+0x184>
bfc00a34:	00000000 	nop
bfc00a38:	24010000 	li	at,0
bfc00a3c:	44817800 	mtc1	at,$f15
bfc00a40:	44807000 	mtc1	zero,$f14
bfc00a44:	24190001 	li	t9,1
bfc00a48:	462c703c 	c.lt.d	$f14,$f12
bfc00a4c:	45010002 	bc1t	bfc00a58 <ln+0x184>
bfc00a50:	00000000 	nop
bfc00a54:	0000c821 	move	t9,zero
bfc00a58:	13200038 	beqz	t9,bfc00b3c <ln+0x268>
bfc00a5c:	00000000 	nop
bfc00a60:	00008021 	move	s0,zero
bfc00a64:	c78e0598 	lwc1	$f14,1432(gp)
bfc00a68:	c78f059c 	lwc1	$f15,1436(gp)
bfc00a6c:	24080001 	li	t0,1
bfc00a70:	462e603c 	c.lt.d	$f12,$f14
bfc00a74:	45010002 	bc1t	bfc00a80 <ln+0x1ac>
bfc00a78:	00000000 	nop
bfc00a7c:	00004021 	move	t0,zero
bfc00a80:	11000018 	beqz	t0,bfc00ae4 <ln+0x210>
bfc00a84:	00000000 	nop
bfc00a88:	b3f002b4 	spawn	bfc00ad0 <ln+0x1fc>
bfc00a8c:	3c08bfc0 	lui	t0,0xbfc0
bfc00a90:	25080780 	addiu	t0,t0,1920
bfc00a94:	03a0f021 	move	s8,sp
bfc00a98:	03a0003e 	fst	sp
bfc00a9c:	03e04009 	jalr	t0,ra
bfc00aa0:	00000000 	nop
bfc00aa4:	46200306 	mov.d	$f12,$f0
bfc00aa8:	24090001 	li	t1,1
bfc00aac:	c78e05a0 	lwc1	$f14,1440(gp)
bfc00ab0:	c78f05a4 	lwc1	$f15,1444(gp)
bfc00ab4:	240a0001 	li	t2,1
bfc00ab8:	02098021 	addu	s0,s0,t1
bfc00abc:	462e603c 	c.lt.d	$f12,$f14
bfc00ac0:	45010002 	bc1t	bfc00acc <ln+0x1f8>
bfc00ac4:	00000000 	nop
bfc00ac8:	00005021 	move	t2,zero
bfc00acc:	4bf002b4 	cqip	bfc00ad0 <ln+0x1fc>
bfc00ad0:	53f002b4 	pslice_entry	bfc00ad0 <ln+0x1fc>
bfc00ad4:	00005021 	move	t2,zero
bfc00ad8:	57f002b4 	pslice_exit	bfc00ad0 <ln+0x1fc>
bfc00adc:	1540ffea 	bnez	t2,bfc00a88 <ln+0x1b4>
bfc00ae0:	00000000 	nop
bfc00ae4:	240b0001 	li	t3,1
bfc00ae8:	3c08bfc0 	lui	t0,0xbfc0
bfc00aec:	2508065c 	addiu	t0,t0,1628
bfc00af0:	3c013ff0 	lui	at,0x3ff0
bfc00af4:	44810800 	mtc1	at,$f1
bfc00af8:	44800000 	mtc1	zero,$f0
bfc00afc:	03a0f021 	move	s8,sp
bfc00b00:	020b6004 	sllv	t4,t3,s0
bfc00b04:	46206301 	sub.d	$f12,$f12,$f0
bfc00b08:	03a0003e 	fst	sp
bfc00b0c:	448c7000 	mtc1	t4,$f14
bfc00b10:	46807521 	cvt.d.w	$f20,$f14
bfc00b14:	03e04009 	jalr	t0,ra
bfc00b18:	00000000 	nop
bfc00b1c:	4620a002 	mul.d	$f0,$f20,$f0
bfc00b20:	8fbf0004 	lw	ra,4(sp)
bfc00b24:	8fb00008 	lw	s0,8(sp)
bfc00b28:	c7b40010 	lwc1	$f20,16(sp)
bfc00b2c:	c7b50014 	lwc1	$f21,20(sp)
bfc00b30:	8fbd0000 	lw	sp,0(sp)
bfc00b34:	03e00008 	jr	ra
bfc00b38:	00000000 	nop
bfc00b3c:	24010000 	li	at,0
bfc00b40:	44810800 	mtc1	at,$f1
bfc00b44:	44800000 	mtc1	zero,$f0
bfc00b48:	240d0001 	li	t5,1
bfc00b4c:	462c003c 	c.lt.d	$f0,$f12
bfc00b50:	45010002 	bc1t	bfc00b5c <ln+0x288>
bfc00b54:	00000000 	nop
bfc00b58:	00006821 	move	t5,zero
bfc00b5c:	11a00012 	beqz	t5,bfc00ba8 <ln+0x2d4>
bfc00b60:	00000000 	nop
bfc00b64:	3c08bfc0 	lui	t0,0xbfc0
bfc00b68:	2508065c 	addiu	t0,t0,1628
bfc00b6c:	3c013ff0 	lui	at,0x3ff0
bfc00b70:	44811800 	mtc1	at,$f3
bfc00b74:	44801000 	mtc1	zero,$f2
bfc00b78:	03a0f021 	move	s8,sp
bfc00b7c:	46226301 	sub.d	$f12,$f12,$f2
bfc00b80:	03a0003e 	fst	sp
bfc00b84:	03e04009 	jalr	t0,ra
bfc00b88:	00000000 	nop
bfc00b8c:	8fbf0004 	lw	ra,4(sp)
bfc00b90:	8fb00008 	lw	s0,8(sp)
bfc00b94:	c7b40010 	lwc1	$f20,16(sp)
bfc00b98:	c7b50014 	lwc1	$f21,20(sp)
bfc00b9c:	8fbd0000 	lw	sp,0(sp)
bfc00ba0:	03e00008 	jr	ra
bfc00ba4:	00000000 	nop
bfc00ba8:	24010000 	li	at,0
bfc00bac:	44810800 	mtc1	at,$f1
bfc00bb0:	44800000 	mtc1	zero,$f0
bfc00bb4:	8fbf0004 	lw	ra,4(sp)
bfc00bb8:	8fb00008 	lw	s0,8(sp)
bfc00bbc:	c7b40010 	lwc1	$f20,16(sp)
bfc00bc0:	c7b50014 	lwc1	$f21,20(sp)
bfc00bc4:	8fbd0000 	lw	sp,0(sp)
bfc00bc8:	03e00008 	jr	ra
bfc00bcc:	00000000 	nop

bfc00bd0 <log>:
bfc00bd0:	27bdffb8 	addiu	sp,sp,-72
bfc00bd4:	0000003f 	ust
bfc00bd8:	afbe0000 	sw	s8,0(sp)
bfc00bdc:	afbf0004 	sw	ra,4(sp)
bfc00be0:	e7b40008 	swc1	$f20,8(sp)
bfc00be4:	e7b5000c 	swc1	$f21,12(sp)
bfc00be8:	3c08bfc0 	lui	t0,0xbfc0
bfc00bec:	250808d4 	addiu	t0,t0,2260
bfc00bf0:	03a0f021 	move	s8,sp
bfc00bf4:	03a0003e 	fst	sp
bfc00bf8:	03e04009 	jalr	t0,ra
bfc00bfc:	00000000 	nop
bfc00c00:	46200506 	mov.d	$f20,$f0
bfc00c04:	3c08bfc0 	lui	t0,0xbfc0
bfc00c08:	250808d4 	addiu	t0,t0,2260
bfc00c0c:	3c014024 	lui	at,0x4024
bfc00c10:	44816800 	mtc1	at,$f13
bfc00c14:	44806000 	mtc1	zero,$f12
bfc00c18:	03a0f021 	move	s8,sp
bfc00c1c:	03a0003e 	fst	sp
bfc00c20:	03e04009 	jalr	t0,ra
bfc00c24:	00000000 	nop
bfc00c28:	4620a003 	div.d	$f0,$f20,$f0
bfc00c2c:	8fbf0004 	lw	ra,4(sp)
bfc00c30:	c7b40008 	lwc1	$f20,8(sp)
bfc00c34:	c7b5000c 	lwc1	$f21,12(sp)
bfc00c38:	8fbd0000 	lw	sp,0(sp)
bfc00c3c:	03e00008 	jr	ra
bfc00c40:	00000000 	nop

bfc00c44 <exp>:
bfc00c44:	27bdffb0 	addiu	sp,sp,-80
bfc00c48:	0000003f 	ust
bfc00c4c:	afbe0000 	sw	s8,0(sp)
bfc00c50:	3c013ff0 	lui	at,0x3ff0
bfc00c54:	44810800 	mtc1	at,$f1
bfc00c58:	44800000 	mtc1	zero,$f0
bfc00c5c:	00004021 	move	t0,zero
bfc00c60:	27890334 	addiu	t1,gp,820
bfc00c64:	8d2a0000 	lw	t2,0(t1)
bfc00c68:	010a582a 	slt	t3,t0,t2
bfc00c6c:	1160001d 	beqz	t3,bfc00ce4 <exp+0xa0>
bfc00c70:	00000000 	nop
bfc00c74:	278c0334 	addiu	t4,gp,820
bfc00c78:	8d8d0000 	lw	t5,0(t4)
bfc00c7c:	b3f0032e 	spawn	bfc00cb8 <exp+0x74>
bfc00c80:	448d9000 	mtc1	t5,$f18
bfc00c84:	3c013ff0 	lui	at,0x3ff0
bfc00c88:	44817800 	mtc1	at,$f15
bfc00c8c:	44807000 	mtc1	zero,$f14
bfc00c90:	240effff 	li	t6,-1
bfc00c94:	00007821 	move	t7,zero
bfc00c98:	468094a1 	cvt.d.w	$f18,$f18
bfc00c9c:	01ae6821 	addu	t5,t5,t6
bfc00ca0:	46320003 	div.d	$f0,$f0,$f18
bfc00ca4:	01edc02a 	slt	t8,t7,t5
bfc00ca8:	3b180001 	xori	t8,t8,0x1
bfc00cac:	462c0002 	mul.d	$f0,$f0,$f12
bfc00cb0:	462e0000 	add.d	$f0,$f0,$f14
bfc00cb4:	4bf0032e 	cqip	bfc00cb8 <exp+0x74>
bfc00cb8:	53f0032e 	pslice_entry	bfc00cb8 <exp+0x74>
bfc00cbc:	240effff 	li	t6,-1
bfc00cc0:	00007821 	move	t7,zero
bfc00cc4:	01ae6821 	addu	t5,t5,t6
bfc00cc8:	01edc02a 	slt	t8,t7,t5
bfc00ccc:	3b180001 	xori	t8,t8,0x1
bfc00cd0:	57f0032e 	pslice_exit	bfc00cb8 <exp+0x74>
bfc00cd4:	1300ffe9 	beqz	t8,bfc00c7c <exp+0x38>
bfc00cd8:	00000000 	nop
bfc00cdc:	0bf0033b 	j	bfc00cec <exp+0xa8>
bfc00ce0:	00000000 	nop
bfc00ce4:	27990334 	addiu	t9,gp,820
bfc00ce8:	8f2d0000 	lw	t5,0(t9)
bfc00cec:	8fbd0000 	lw	sp,0(sp)
bfc00cf0:	03e00008 	jr	ra
bfc00cf4:	00000000 	nop

bfc00cf8 <pow>:
bfc00cf8:	27bdffb0 	addiu	sp,sp,-80
bfc00cfc:	b3f00347 	spawn	bfc00d1c <pow+0x24>
bfc00d00:	0000003f 	ust
bfc00d04:	afbe0000 	sw	s8,0(sp)
bfc00d08:	afbf0004 	sw	ra,4(sp)
bfc00d0c:	afb00008 	sw	s0,8(sp)
bfc00d10:	e7b40010 	swc1	$f20,16(sp)
bfc00d14:	e7b50014 	swc1	$f21,20(sp)
bfc00d18:	4bf00347 	cqip	bfc00d1c <pow+0x24>
bfc00d1c:	53f00347 	pslice_entry	bfc00d1c <pow+0x24>
bfc00d20:	57f00347 	pslice_exit	bfc00d1c <pow+0x24>
bfc00d24:	46207506 	mov.d	$f20,$f14
bfc00d28:	3c10bfc0 	lui	s0,0xbfc0
bfc00d2c:	26100c44 	addiu	s0,s0,3140
bfc00d30:	3c08bfc0 	lui	t0,0xbfc0
bfc00d34:	250808d4 	addiu	t0,t0,2260
bfc00d38:	03a0f021 	move	s8,sp
bfc00d3c:	03a0003e 	fst	sp
bfc00d40:	03e04009 	jalr	t0,ra
bfc00d44:	00000000 	nop
bfc00d48:	4620a302 	mul.d	$f12,$f20,$f0
bfc00d4c:	03a0f021 	move	s8,sp
bfc00d50:	02004021 	move	t0,s0
bfc00d54:	03a0003e 	fst	sp
bfc00d58:	03e04009 	jalr	t0,ra
bfc00d5c:	00000000 	nop
bfc00d60:	8fbf0004 	lw	ra,4(sp)
bfc00d64:	8fb00008 	lw	s0,8(sp)
bfc00d68:	c7b40010 	lwc1	$f20,16(sp)
bfc00d6c:	c7b50014 	lwc1	$f21,20(sp)
bfc00d70:	8fbd0000 	lw	sp,0(sp)
bfc00d74:	03e00008 	jr	ra
bfc00d78:	00000000 	nop

bfc00d7c <__kernel_cosf>:
bfc00d7c:	27bdfec0 	addiu	sp,sp,-320
bfc00d80:	0000003f 	ust
bfc00d84:	afbe0000 	sw	s8,0(sp)
bfc00d88:	afbf0004 	sw	ra,4(sp)
bfc00d8c:	e7b40008 	swc1	$f20,8(sp)
bfc00d90:	e7b5000c 	swc1	$f21,12(sp)
bfc00d94:	e7b60010 	swc1	$f22,16(sp)
bfc00d98:	e7b70014 	swc1	$f23,20(sp)
bfc00d9c:	27aa011c 	addiu	t2,sp,284
bfc00da0:	e54c0000 	swc1	$f12,0(t2)
bfc00da4:	27ab011c 	addiu	t3,sp,284
bfc00da8:	8d680000 	lw	t0,0(t3)
bfc00dac:	3c0c7fff 	lui	t4,0x7fff
bfc00db0:	358cffff 	ori	t4,t4,0xffff
bfc00db4:	010c4024 	and	t0,t0,t4
bfc00db8:	3c0d3200 	lui	t5,0x3200
bfc00dbc:	010d702a 	slt	t6,t0,t5
bfc00dc0:	11c00012 	beqz	t6,bfc00e0c <__kernel_cosf+0x90>
bfc00dc4:	00000000 	nop
bfc00dc8:	46006124 	cvt.w.s	$f4,$f12
bfc00dcc:	440f2000 	mfc1	t7,$f4
bfc00dd0:	0000c021 	move	t8,zero
bfc00dd4:	01f8c826 	xor	t9,t7,t8
bfc00dd8:	2f390001 	sltiu	t9,t9,1
bfc00ddc:	1320000b 	beqz	t9,bfc00e0c <__kernel_cosf+0x90>
bfc00de0:	00000000 	nop
bfc00de4:	27840354 	addiu	a0,gp,852
bfc00de8:	c4800000 	lwc1	$f0,0(a0)
bfc00dec:	8fbf0004 	lw	ra,4(sp)
bfc00df0:	c7b40008 	lwc1	$f20,8(sp)
bfc00df4:	c7b5000c 	lwc1	$f21,12(sp)
bfc00df8:	c7b60010 	lwc1	$f22,16(sp)
bfc00dfc:	c7b70014 	lwc1	$f23,20(sp)
bfc00e00:	8fbd0000 	lw	sp,0(sp)
bfc00e04:	03e00008 	jr	ra
bfc00e08:	00000000 	nop
bfc00e0c:	460c6582 	mul.s	$f22,$f12,$f12
bfc00e10:	27850358 	addiu	a1,gp,856
bfc00e14:	c4b40000 	lwc1	$f20,0(a1)
bfc00e18:	2786035c 	addiu	a2,gp,860
bfc00e1c:	c4c40000 	lwc1	$f4,0(a2)
bfc00e20:	27870360 	addiu	a3,gp,864
bfc00e24:	c4e60000 	lwc1	$f6,0(a3)
bfc00e28:	27820364 	addiu	v0,gp,868
bfc00e2c:	c4480000 	lwc1	$f8,0(v0)
bfc00e30:	27830368 	addiu	v1,gp,872
bfc00e34:	c46a0000 	lwc1	$f10,0(v1)
bfc00e38:	2789036c 	addiu	t1,gp,876
bfc00e3c:	c5300000 	lwc1	$f16,0(t1)
bfc00e40:	4610b482 	mul.s	$f18,$f22,$f16
bfc00e44:	46125000 	add.s	$f0,$f10,$f18
bfc00e48:	4600b002 	mul.s	$f0,$f22,$f0
bfc00e4c:	46004000 	add.s	$f0,$f8,$f0
bfc00e50:	4600b082 	mul.s	$f2,$f22,$f0
bfc00e54:	46023180 	add.s	$f6,$f6,$f2
bfc00e58:	4606b182 	mul.s	$f6,$f22,$f6
bfc00e5c:	46062200 	add.s	$f8,$f4,$f6
bfc00e60:	4608b282 	mul.s	$f10,$f22,$f8
bfc00e64:	460aa400 	add.s	$f16,$f20,$f10
bfc00e68:	4610b482 	mul.s	$f18,$f22,$f16
bfc00e6c:	3c093e99 	lui	t1,0x3e99
bfc00e70:	3529999a 	ori	t1,t1,0x999a
bfc00e74:	0109502a 	slt	t2,t0,t1
bfc00e78:	11400013 	beqz	t2,bfc00ec8 <__kernel_cosf+0x14c>
bfc00e7c:	00000000 	nop
bfc00e80:	278b0354 	addiu	t3,gp,852
bfc00e84:	c5600000 	lwc1	$f0,0(t3)
bfc00e88:	3c013f00 	lui	at,0x3f00
bfc00e8c:	44811000 	mtc1	at,$f2
bfc00e90:	46161082 	mul.s	$f2,$f2,$f22
bfc00e94:	4612b102 	mul.s	$f4,$f22,$f18
bfc00e98:	460e6182 	mul.s	$f6,$f12,$f14
bfc00e9c:	46062181 	sub.s	$f6,$f4,$f6
bfc00ea0:	46061201 	sub.s	$f8,$f2,$f6
bfc00ea4:	46080001 	sub.s	$f0,$f0,$f8
bfc00ea8:	8fbf0004 	lw	ra,4(sp)
bfc00eac:	c7b40008 	lwc1	$f20,8(sp)
bfc00eb0:	c7b5000c 	lwc1	$f21,12(sp)
bfc00eb4:	c7b60010 	lwc1	$f22,16(sp)
bfc00eb8:	c7b70014 	lwc1	$f23,20(sp)
bfc00ebc:	8fbd0000 	lw	sp,0(sp)
bfc00ec0:	03e00008 	jr	ra
bfc00ec4:	00000000 	nop
bfc00ec8:	3c0c3f48 	lui	t4,0x3f48
bfc00ecc:	0188682a 	slt	t5,t4,t0
bfc00ed0:	11a00005 	beqz	t5,bfc00ee8 <__kernel_cosf+0x16c>
bfc00ed4:	00000000 	nop
bfc00ed8:	3c013e90 	lui	at,0x3e90
bfc00edc:	44815000 	mtc1	at,$f10
bfc00ee0:	0bf003c0 	j	bfc00f00 <__kernel_cosf+0x184>
bfc00ee4:	00000000 	nop
bfc00ee8:	27ae0118 	addiu	t6,sp,280
bfc00eec:	3c0f0100 	lui	t7,0x100
bfc00ef0:	010f4823 	subu	t1,t0,t7
bfc00ef4:	adc90000 	sw	t1,0(t6)
bfc00ef8:	27b80118 	addiu	t8,sp,280
bfc00efc:	c70a0000 	lwc1	$f10,0(t8)
bfc00f00:	3c013f00 	lui	at,0x3f00
bfc00f04:	44818000 	mtc1	at,$f16
bfc00f08:	46168002 	mul.s	$f0,$f16,$f22
bfc00f0c:	460a0001 	sub.s	$f0,$f0,$f10
bfc00f10:	27990354 	addiu	t9,gp,852
bfc00f14:	c7220000 	lwc1	$f2,0(t9)
bfc00f18:	460a1081 	sub.s	$f2,$f2,$f10
bfc00f1c:	4612b102 	mul.s	$f4,$f22,$f18
bfc00f20:	460e6182 	mul.s	$f6,$f12,$f14
bfc00f24:	46062181 	sub.s	$f6,$f4,$f6
bfc00f28:	46060201 	sub.s	$f8,$f0,$f6
bfc00f2c:	46081001 	sub.s	$f0,$f2,$f8
bfc00f30:	8fbf0004 	lw	ra,4(sp)
bfc00f34:	c7b40008 	lwc1	$f20,8(sp)
bfc00f38:	c7b5000c 	lwc1	$f21,12(sp)
bfc00f3c:	c7b60010 	lwc1	$f22,16(sp)
bfc00f40:	c7b70014 	lwc1	$f23,20(sp)
bfc00f44:	8fbd0000 	lw	sp,0(sp)
bfc00f48:	03e00008 	jr	ra
bfc00f4c:	00000000 	nop

bfc00f50 <_sinf>:
bfc00f50:	27bdff00 	addiu	sp,sp,-256
bfc00f54:	0000003f 	ust
bfc00f58:	afbe0000 	sw	s8,0(sp)
bfc00f5c:	afbf0004 	sw	ra,4(sp)
bfc00f60:	e7b40008 	swc1	$f20,8(sp)
bfc00f64:	e7b5000c 	swc1	$f21,12(sp)
bfc00f68:	e7b60010 	swc1	$f22,16(sp)
bfc00f6c:	e7b70014 	swc1	$f23,20(sp)
bfc00f70:	8faa00f4 	lw	t2,244(sp)
bfc00f74:	46006006 	mov.s	$f0,$f12
bfc00f78:	27ac00e0 	addiu	t4,sp,224
bfc00f7c:	e5800000 	swc1	$f0,0(t4)
bfc00f80:	27ad00e0 	addiu	t5,sp,224
bfc00f84:	8dab0000 	lw	t3,0(t5)
bfc00f88:	3c0e7fff 	lui	t6,0x7fff
bfc00f8c:	35ceffff 	ori	t6,t6,0xffff
bfc00f90:	016e5824 	and	t3,t3,t6
bfc00f94:	b3f003fa 	spawn	bfc00fe8 <_sinf+0x98>
bfc00f98:	3c0f3200 	lui	t7,0x3200
bfc00f9c:	016fc02a 	slt	t8,t3,t7
bfc00fa0:	13000010 	beqz	t8,bfc00fe4 <_sinf+0x94>
bfc00fa4:	00000000 	nop
bfc00fa8:	460000a4 	cvt.w.s	$f2,$f0
bfc00fac:	44191000 	mfc1	t9,$f2
bfc00fb0:	00002021 	move	a0,zero
bfc00fb4:	03242826 	xor	a1,t9,a0
bfc00fb8:	2ca50001 	sltiu	a1,a1,1
bfc00fbc:	10a00009 	beqz	a1,bfc00fe4 <_sinf+0x94>
bfc00fc0:	00000000 	nop
bfc00fc4:	8fbf0004 	lw	ra,4(sp)
bfc00fc8:	c7b40008 	lwc1	$f20,8(sp)
bfc00fcc:	c7b5000c 	lwc1	$f21,12(sp)
bfc00fd0:	c7b60010 	lwc1	$f22,16(sp)
bfc00fd4:	c7b70014 	lwc1	$f23,20(sp)
bfc00fd8:	8fbd0000 	lw	sp,0(sp)
bfc00fdc:	03e00008 	jr	ra
bfc00fe0:	00000000 	nop
bfc00fe4:	4bf003fa 	cqip	bfc00fe8 <_sinf+0x98>
bfc00fe8:	53f003fa 	pslice_entry	bfc00fe8 <_sinf+0x98>
bfc00fec:	57f003fa 	pslice_exit	bfc00fe8 <_sinf+0x98>
bfc00ff0:	b3f00413 	spawn	bfc0104c <_sinf+0xfc>
bfc00ff4:	b3f00429 	spawn	bfc010a4 <_sinf+0x154>
bfc00ff8:	46000582 	mul.s	$f22,$f0,$f0
bfc00ffc:	4600b502 	mul.s	$f20,$f22,$f0
bfc01000:	27860378 	addiu	a2,gp,888
bfc01004:	c4c20000 	lwc1	$f2,0(a2)
bfc01008:	2787037c 	addiu	a3,gp,892
bfc0100c:	c4e40000 	lwc1	$f4,0(a3)
bfc01010:	27820380 	addiu	v0,gp,896
bfc01014:	c4460000 	lwc1	$f6,0(v0)
bfc01018:	27830384 	addiu	v1,gp,900
bfc0101c:	c4680000 	lwc1	$f8,0(v1)
bfc01020:	27880388 	addiu	t0,gp,904
bfc01024:	c50a0000 	lwc1	$f10,0(t0)
bfc01028:	460ab282 	mul.s	$f10,$f22,$f10
bfc0102c:	460a4400 	add.s	$f16,$f8,$f10
bfc01030:	4610b482 	mul.s	$f18,$f22,$f16
bfc01034:	46123300 	add.s	$f12,$f6,$f18
bfc01038:	460cb182 	mul.s	$f6,$f22,$f12
bfc0103c:	46062100 	add.s	$f4,$f4,$f6
bfc01040:	4604b102 	mul.s	$f4,$f22,$f4
bfc01044:	46041100 	add.s	$f4,$f2,$f4
bfc01048:	4bf00413 	cqip	bfc0104c <_sinf+0xfc>
bfc0104c:	53f00413 	pslice_entry	bfc0104c <_sinf+0xfc>
bfc01050:	57f00413 	pslice_exit	bfc0104c <_sinf+0xfc>
bfc01054:	00004821 	move	t1,zero
bfc01058:	01495826 	xor	t3,t2,t1
bfc0105c:	2d6b0001 	sltiu	t3,t3,1
bfc01060:	1160000f 	beqz	t3,bfc010a0 <_sinf+0x150>
bfc01064:	00000000 	nop
bfc01068:	278c0374 	addiu	t4,gp,884
bfc0106c:	c5860000 	lwc1	$f6,0(t4)
bfc01070:	4604b202 	mul.s	$f8,$f22,$f4
bfc01074:	46083280 	add.s	$f10,$f6,$f8
bfc01078:	460aa402 	mul.s	$f16,$f20,$f10
bfc0107c:	46100000 	add.s	$f0,$f0,$f16
bfc01080:	8fbf0004 	lw	ra,4(sp)
bfc01084:	c7b40008 	lwc1	$f20,8(sp)
bfc01088:	c7b5000c 	lwc1	$f21,12(sp)
bfc0108c:	c7b60010 	lwc1	$f22,16(sp)
bfc01090:	c7b70014 	lwc1	$f23,20(sp)
bfc01094:	8fbd0000 	lw	sp,0(sp)
bfc01098:	03e00008 	jr	ra
bfc0109c:	00000000 	nop
bfc010a0:	4bf00429 	cqip	bfc010a4 <_sinf+0x154>
bfc010a4:	53f00429 	pslice_entry	bfc010a4 <_sinf+0x154>
bfc010a8:	57f00429 	pslice_exit	bfc010a4 <_sinf+0x154>
bfc010ac:	278d0370 	addiu	t5,gp,880
bfc010b0:	c5b20000 	lwc1	$f18,0(t5)
bfc010b4:	460e9302 	mul.s	$f12,$f18,$f14
bfc010b8:	4604a082 	mul.s	$f2,$f20,$f4
bfc010bc:	46026081 	sub.s	$f2,$f12,$f2
bfc010c0:	4602b082 	mul.s	$f2,$f22,$f2
bfc010c4:	460e1101 	sub.s	$f4,$f2,$f14
bfc010c8:	278e0374 	addiu	t6,gp,884
bfc010cc:	c5c60000 	lwc1	$f6,0(t6)
bfc010d0:	4606a202 	mul.s	$f8,$f20,$f6
bfc010d4:	46082281 	sub.s	$f10,$f4,$f8
bfc010d8:	460a0001 	sub.s	$f0,$f0,$f10
bfc010dc:	8fbf0004 	lw	ra,4(sp)
bfc010e0:	c7b40008 	lwc1	$f20,8(sp)
bfc010e4:	c7b5000c 	lwc1	$f21,12(sp)
bfc010e8:	c7b60010 	lwc1	$f22,16(sp)
bfc010ec:	c7b70014 	lwc1	$f23,20(sp)
bfc010f0:	8fbd0000 	lw	sp,0(sp)
bfc010f4:	03e00008 	jr	ra
bfc010f8:	00000000 	nop

bfc010fc <fabsf>:
bfc010fc:	27bdffd0 	addiu	sp,sp,-48
bfc01100:	0000003f 	ust
bfc01104:	afbe0000 	sw	s8,0(sp)
bfc01108:	27ac0024 	addiu	t4,sp,36
bfc0110c:	e58c0000 	swc1	$f12,0(t4)
bfc01110:	27ad0024 	addiu	t5,sp,36
bfc01114:	8dae0000 	lw	t6,0(t5)
bfc01118:	27af0020 	addiu	t7,sp,32
bfc0111c:	3c187fff 	lui	t8,0x7fff
bfc01120:	3718ffff 	ori	t8,t8,0xffff
bfc01124:	01d8c824 	and	t9,t6,t8
bfc01128:	adf90000 	sw	t9,0(t7)
bfc0112c:	27a40020 	addiu	a0,sp,32
bfc01130:	c48c0000 	lwc1	$f12,0(a0)
bfc01134:	46006006 	mov.s	$f0,$f12
bfc01138:	8fbd0000 	lw	sp,0(sp)
bfc0113c:	03e00008 	jr	ra
bfc01140:	00000000 	nop

bfc01144 <__ieee754_rem_pio2f>:
bfc01144:	27bdfc00 	addiu	sp,sp,-1024
bfc01148:	0000003f 	ust
bfc0114c:	afbe0000 	sw	s8,0(sp)
bfc01150:	afbf0004 	sw	ra,4(sp)
bfc01154:	afb00008 	sw	s0,8(sp)
bfc01158:	afb1000c 	sw	s1,12(sp)
bfc0115c:	afb20010 	sw	s2,16(sp)
bfc01160:	e7b40018 	swc1	$f20,24(sp)
bfc01164:	e7b5001c 	swc1	$f21,28(sp)
bfc01168:	00c09021 	move	s2,a2
bfc0116c:	27ad03b4 	addiu	t5,sp,948
bfc01170:	e5ac0000 	swc1	$f12,0(t5)
bfc01174:	27ae03b4 	addiu	t6,sp,948
bfc01178:	8dd10000 	lw	s1,0(t6)
bfc0117c:	3c0f7fff 	lui	t7,0x7fff
bfc01180:	35efffff 	ori	t7,t7,0xffff
bfc01184:	022f8024 	and	s0,s1,t7
bfc01188:	3c183f49 	lui	t8,0x3f49
bfc0118c:	37180fd8 	ori	t8,t8,0xfd8
bfc01190:	0310c82a 	slt	t9,t8,s0
bfc01194:	3b390001 	xori	t9,t9,0x1
bfc01198:	13200011 	beqz	t9,bfc011e0 <__ieee754_rem_pio2f+0x9c>
bfc0119c:	00000000 	nop
bfc011a0:	e64c0000 	swc1	$f12,0(s2)
bfc011a4:	24040004 	li	a0,4
bfc011a8:	02442821 	addu	a1,s2,a0
bfc011ac:	24010000 	li	at,0
bfc011b0:	44816000 	mtc1	at,$f12
bfc011b4:	e4ac0000 	swc1	$f12,0(a1)
bfc011b8:	00001021 	move	v0,zero
bfc011bc:	8fbf0004 	lw	ra,4(sp)
bfc011c0:	8fb00008 	lw	s0,8(sp)
bfc011c4:	8fb1000c 	lw	s1,12(sp)
bfc011c8:	8fb20010 	lw	s2,16(sp)
bfc011cc:	c7b40018 	lwc1	$f20,24(sp)
bfc011d0:	c7b5001c 	lwc1	$f21,28(sp)
bfc011d4:	8fbd0000 	lw	sp,0(sp)
bfc011d8:	03e00008 	jr	ra
bfc011dc:	00000000 	nop
bfc011e0:	3c064016 	lui	a2,0x4016
bfc011e4:	34c6cbe4 	ori	a2,a2,0xcbe4
bfc011e8:	0206382a 	slt	a3,s0,a2
bfc011ec:	10e00069 	beqz	a3,bfc01394 <__ieee754_rem_pio2f+0x250>
bfc011f0:	00000000 	nop
bfc011f4:	00001021 	move	v0,zero
bfc011f8:	0051182a 	slt	v1,v0,s1
bfc011fc:	10600033 	beqz	v1,bfc012cc <__ieee754_rem_pio2f+0x188>
bfc01200:	00000000 	nop
bfc01204:	27880418 	addiu	t0,gp,1048
bfc01208:	c50e0000 	lwc1	$f14,0(t0)
bfc0120c:	460e6501 	sub.s	$f20,$f12,$f14
bfc01210:	2409fff0 	li	t1,-16
bfc01214:	02095024 	and	t2,s0,t1
bfc01218:	3c0b3fc9 	lui	t3,0x3fc9
bfc0121c:	356b0fd0 	ori	t3,t3,0xfd0
bfc01220:	014b6026 	xor	t4,t2,t3
bfc01224:	000c602b 	sltu	t4,zero,t4
bfc01228:	1180000f 	beqz	t4,bfc01268 <__ieee754_rem_pio2f+0x124>
bfc0122c:	00000000 	nop
bfc01230:	278d041c 	addiu	t5,gp,1052
bfc01234:	c5a00000 	lwc1	$f0,0(t5)
bfc01238:	4600a081 	sub.s	$f2,$f20,$f0
bfc0123c:	e6420000 	swc1	$f2,0(s2)
bfc01240:	240e0004 	li	t6,4
bfc01244:	024e7821 	addu	t7,s2,t6
bfc01248:	c6440000 	lwc1	$f4,0(s2)
bfc0124c:	4604a181 	sub.s	$f6,$f20,$f4
bfc01250:	2798041c 	addiu	t8,gp,1052
bfc01254:	c7080000 	lwc1	$f8,0(t8)
bfc01258:	46083281 	sub.s	$f10,$f6,$f8
bfc0125c:	e5ea0000 	swc1	$f10,0(t7)
bfc01260:	0bf004a9 	j	bfc012a4 <__ieee754_rem_pio2f+0x160>
bfc01264:	00000000 	nop
bfc01268:	27990420 	addiu	t9,gp,1056
bfc0126c:	c7300000 	lwc1	$f16,0(t9)
bfc01270:	4610a501 	sub.s	$f20,$f20,$f16
bfc01274:	27840424 	addiu	a0,gp,1060
bfc01278:	c4920000 	lwc1	$f18,0(a0)
bfc0127c:	4612a301 	sub.s	$f12,$f20,$f18
bfc01280:	e64c0000 	swc1	$f12,0(s2)
bfc01284:	24050004 	li	a1,4
bfc01288:	02453021 	addu	a2,s2,a1
bfc0128c:	c64e0000 	lwc1	$f14,0(s2)
bfc01290:	460ea001 	sub.s	$f0,$f20,$f14
bfc01294:	27870424 	addiu	a3,gp,1060
bfc01298:	c4e20000 	lwc1	$f2,0(a3)
bfc0129c:	46020101 	sub.s	$f4,$f0,$f2
bfc012a0:	e4c40000 	swc1	$f4,0(a2)
bfc012a4:	24020001 	li	v0,1
bfc012a8:	8fbf0004 	lw	ra,4(sp)
bfc012ac:	8fb00008 	lw	s0,8(sp)
bfc012b0:	8fb1000c 	lw	s1,12(sp)
bfc012b4:	8fb20010 	lw	s2,16(sp)
bfc012b8:	c7b40018 	lwc1	$f20,24(sp)
bfc012bc:	c7b5001c 	lwc1	$f21,28(sp)
bfc012c0:	8fbd0000 	lw	sp,0(sp)
bfc012c4:	03e00008 	jr	ra
bfc012c8:	00000000 	nop
bfc012cc:	27820418 	addiu	v0,gp,1048
bfc012d0:	c4460000 	lwc1	$f6,0(v0)
bfc012d4:	46066500 	add.s	$f20,$f12,$f6
bfc012d8:	2403fff0 	li	v1,-16
bfc012dc:	02034024 	and	t0,s0,v1
bfc012e0:	3c093fc9 	lui	t1,0x3fc9
bfc012e4:	35290fd0 	ori	t1,t1,0xfd0
bfc012e8:	01095026 	xor	t2,t0,t1
bfc012ec:	000a502b 	sltu	t2,zero,t2
bfc012f0:	1140000f 	beqz	t2,bfc01330 <__ieee754_rem_pio2f+0x1ec>
bfc012f4:	00000000 	nop
bfc012f8:	278b041c 	addiu	t3,gp,1052
bfc012fc:	c5680000 	lwc1	$f8,0(t3)
bfc01300:	4608a280 	add.s	$f10,$f20,$f8
bfc01304:	e64a0000 	swc1	$f10,0(s2)
bfc01308:	240c0004 	li	t4,4
bfc0130c:	024c6821 	addu	t5,s2,t4
bfc01310:	c6500000 	lwc1	$f16,0(s2)
bfc01314:	4610a481 	sub.s	$f18,$f20,$f16
bfc01318:	278e041c 	addiu	t6,gp,1052
bfc0131c:	c5cc0000 	lwc1	$f12,0(t6)
bfc01320:	460c9380 	add.s	$f14,$f18,$f12
bfc01324:	e5ae0000 	swc1	$f14,0(t5)
bfc01328:	0bf004db 	j	bfc0136c <__ieee754_rem_pio2f+0x228>
bfc0132c:	00000000 	nop
bfc01330:	278f0420 	addiu	t7,gp,1056
bfc01334:	c5e00000 	lwc1	$f0,0(t7)
bfc01338:	4600a500 	add.s	$f20,$f20,$f0
bfc0133c:	27980424 	addiu	t8,gp,1060
bfc01340:	c7020000 	lwc1	$f2,0(t8)
bfc01344:	4602a100 	add.s	$f4,$f20,$f2
bfc01348:	e6440000 	swc1	$f4,0(s2)
bfc0134c:	24190004 	li	t9,4
bfc01350:	02592021 	addu	a0,s2,t9
bfc01354:	c6460000 	lwc1	$f6,0(s2)
bfc01358:	4606a201 	sub.s	$f8,$f20,$f6
bfc0135c:	27850424 	addiu	a1,gp,1060
bfc01360:	c4aa0000 	lwc1	$f10,0(a1)
bfc01364:	460a4400 	add.s	$f16,$f8,$f10
bfc01368:	e4900000 	swc1	$f16,0(a0)
bfc0136c:	2402ffff 	li	v0,-1
bfc01370:	8fbf0004 	lw	ra,4(sp)
bfc01374:	8fb00008 	lw	s0,8(sp)
bfc01378:	8fb1000c 	lw	s1,12(sp)
bfc0137c:	8fb20010 	lw	s2,16(sp)
bfc01380:	c7b40018 	lwc1	$f20,24(sp)
bfc01384:	c7b5001c 	lwc1	$f21,28(sp)
bfc01388:	8fbd0000 	lw	sp,0(sp)
bfc0138c:	03e00008 	jr	ra
bfc01390:	00000000 	nop
bfc01394:	3c064349 	lui	a2,0x4349
bfc01398:	34c60f80 	ori	a2,a2,0xf80
bfc0139c:	00d0382a 	slt	a3,a2,s0
bfc013a0:	38e70001 	xori	a3,a3,0x1
bfc013a4:	10e00090 	beqz	a3,bfc015e8 <__ieee754_rem_pio2f+0x4a4>
bfc013a8:	00000000 	nop
bfc013ac:	3c08bfc0 	lui	t0,0xbfc0
bfc013b0:	250810fc 	addiu	t0,t0,4348
bfc013b4:	03a0f021 	move	s8,sp
bfc013b8:	03a0003e 	fst	sp
bfc013bc:	03e04009 	jalr	t0,ra
bfc013c0:	00000000 	nop
bfc013c4:	27820414 	addiu	v0,gp,1044
bfc013c8:	c4520000 	lwc1	$f18,0(v0)
bfc013cc:	46120302 	mul.s	$f12,$f0,$f18
bfc013d0:	27830370 	addiu	v1,gp,880
bfc013d4:	c46e0000 	lwc1	$f14,0(v1)
bfc013d8:	460e6080 	add.s	$f2,$f12,$f14
bfc013dc:	460010a4 	cvt.w.s	$f2,$f2
bfc013e0:	44021000 	mfc1	v0,$f2
bfc013e4:	44822000 	mtc1	v0,$f4
bfc013e8:	46802520 	cvt.s.w	$f20,$f4
bfc013ec:	27880418 	addiu	t0,gp,1048
bfc013f0:	c5060000 	lwc1	$f6,0(t0)
bfc013f4:	4606a202 	mul.s	$f8,$f20,$f6
bfc013f8:	46080481 	sub.s	$f18,$f0,$f8
bfc013fc:	2789041c 	addiu	t1,gp,1052
bfc01400:	c52a0000 	lwc1	$f10,0(t1)
bfc01404:	460aa182 	mul.s	$f6,$f20,$f10
bfc01408:	240a0020 	li	t2,32
bfc0140c:	004a402a 	slt	t0,v0,t2
bfc01410:	15000003 	bnez	t0,bfc01420 <__ieee754_rem_pio2f+0x2dc>
bfc01414:	00000000 	nop
bfc01418:	0bf00513 	j	bfc0144c <__ieee754_rem_pio2f+0x308>
bfc0141c:	00000000 	nop
bfc01420:	240bff00 	li	t3,-256
bfc01424:	020b4824 	and	t1,s0,t3
bfc01428:	3c0ca00c 	lui	t4,0xa00c
bfc0142c:	258c0388 	addiu	t4,t4,904
bfc01430:	240d0004 	li	t5,4
bfc01434:	004d0018 	mult	v0,t5
bfc01438:	00007012 	mflo	t6
bfc0143c:	018e7821 	addu	t7,t4,t6
bfc01440:	8df80000 	lw	t8,0(t7)
bfc01444:	01384026 	xor	t0,t1,t8
bfc01448:	0008402b 	sltu	t0,zero,t0
bfc0144c:	11000005 	beqz	t0,bfc01464 <__ieee754_rem_pio2f+0x320>
bfc01450:	00000000 	nop
bfc01454:	46069401 	sub.s	$f16,$f18,$f6
bfc01458:	e6500000 	swc1	$f16,0(s2)
bfc0145c:	0bf00553 	j	bfc0154c <__ieee754_rem_pio2f+0x408>
bfc01460:	00000000 	nop
bfc01464:	24190017 	li	t9,23
bfc01468:	03305807 	srav	t3,s0,t9
bfc0146c:	46069301 	sub.s	$f12,$f18,$f6
bfc01470:	e64c0000 	swc1	$f12,0(s2)
bfc01474:	27a403a4 	addiu	a0,sp,932
bfc01478:	c64c0000 	lwc1	$f12,0(s2)
bfc0147c:	e48c0000 	swc1	$f12,0(a0)
bfc01480:	27a503a4 	addiu	a1,sp,932
bfc01484:	8ca60000 	lw	a2,0(a1)
bfc01488:	24070017 	li	a3,23
bfc0148c:	00e61806 	srlv	v1,a2,a3
bfc01490:	240800ff 	li	t0,255
bfc01494:	00684024 	and	t0,v1,t0
bfc01498:	01685023 	subu	t2,t3,t0
bfc0149c:	24090008 	li	t1,8
bfc014a0:	012a502a 	slt	t2,t1,t2
bfc014a4:	11400029 	beqz	t2,bfc0154c <__ieee754_rem_pio2f+0x408>
bfc014a8:	00000000 	nop
bfc014ac:	46009006 	mov.s	$f0,$f18
bfc014b0:	278c0420 	addiu	t4,gp,1056
bfc014b4:	c58e0000 	lwc1	$f14,0(t4)
bfc014b8:	460ea182 	mul.s	$f6,$f20,$f14
bfc014bc:	46060481 	sub.s	$f18,$f0,$f6
bfc014c0:	278c0424 	addiu	t4,gp,1060
bfc014c4:	c5820000 	lwc1	$f2,0(t4)
bfc014c8:	4602a082 	mul.s	$f2,$f20,$f2
bfc014cc:	46120101 	sub.s	$f4,$f0,$f18
bfc014d0:	46062181 	sub.s	$f6,$f4,$f6
bfc014d4:	46061181 	sub.s	$f6,$f2,$f6
bfc014d8:	46069201 	sub.s	$f8,$f18,$f6
bfc014dc:	e6480000 	swc1	$f8,0(s2)
bfc014e0:	27ad03a0 	addiu	t5,sp,928
bfc014e4:	c64a0000 	lwc1	$f10,0(s2)
bfc014e8:	e5aa0000 	swc1	$f10,0(t5)
bfc014ec:	27ae03a0 	addiu	t6,sp,928
bfc014f0:	8dc60000 	lw	a2,0(t6)
bfc014f4:	240f0017 	li	t7,23
bfc014f8:	01e6c006 	srlv	t8,a2,t7
bfc014fc:	241900ff 	li	t9,255
bfc01500:	03192024 	and	a0,t8,t9
bfc01504:	01645023 	subu	t2,t3,a0
bfc01508:	24050019 	li	a1,25
bfc0150c:	00aa302a 	slt	a2,a1,t2
bfc01510:	10c0000e 	beqz	a2,bfc0154c <__ieee754_rem_pio2f+0x408>
bfc01514:	00000000 	nop
bfc01518:	46009006 	mov.s	$f0,$f18
bfc0151c:	27870428 	addiu	a3,gp,1064
bfc01520:	c4f00000 	lwc1	$f16,0(a3)
bfc01524:	4610a182 	mul.s	$f6,$f20,$f16
bfc01528:	46060481 	sub.s	$f18,$f0,$f6
bfc0152c:	2783042c 	addiu	v1,gp,1068
bfc01530:	c46c0000 	lwc1	$f12,0(v1)
bfc01534:	460ca302 	mul.s	$f12,$f20,$f12
bfc01538:	46120381 	sub.s	$f14,$f0,$f18
bfc0153c:	46067001 	sub.s	$f0,$f14,$f6
bfc01540:	46006181 	sub.s	$f6,$f12,$f0
bfc01544:	46069081 	sub.s	$f2,$f18,$f6
bfc01548:	e6420000 	swc1	$f2,0(s2)
bfc0154c:	24030004 	li	v1,4
bfc01550:	02434021 	addu	t0,s2,v1
bfc01554:	c6480000 	lwc1	$f8,0(s2)
bfc01558:	46089201 	sub.s	$f8,$f18,$f8
bfc0155c:	46064281 	sub.s	$f10,$f8,$f6
bfc01560:	e50a0000 	swc1	$f10,0(t0)
bfc01564:	00004821 	move	t1,zero
bfc01568:	0229502a 	slt	t2,s1,t1
bfc0156c:	11400015 	beqz	t2,bfc015c4 <__ieee754_rem_pio2f+0x480>
bfc01570:	00000000 	nop
bfc01574:	c6500000 	lwc1	$f16,0(s2)
bfc01578:	46008487 	neg.s	$f18,$f16
bfc0157c:	e6520000 	swc1	$f18,0(s2)
bfc01580:	240b0004 	li	t3,4
bfc01584:	024b6021 	addu	t4,s2,t3
bfc01588:	240d0004 	li	t5,4
bfc0158c:	024d7021 	addu	t6,s2,t5
bfc01590:	c5cc0000 	lwc1	$f12,0(t6)
bfc01594:	46006387 	neg.s	$f14,$f12
bfc01598:	e58e0000 	swc1	$f14,0(t4)
bfc0159c:	00021023 	negu	v0,v0
bfc015a0:	8fbf0004 	lw	ra,4(sp)
bfc015a4:	8fb00008 	lw	s0,8(sp)
bfc015a8:	8fb1000c 	lw	s1,12(sp)
bfc015ac:	8fb20010 	lw	s2,16(sp)
bfc015b0:	c7b40018 	lwc1	$f20,24(sp)
bfc015b4:	c7b5001c 	lwc1	$f21,28(sp)
bfc015b8:	8fbd0000 	lw	sp,0(sp)
bfc015bc:	03e00008 	jr	ra
bfc015c0:	00000000 	nop
bfc015c4:	8fbf0004 	lw	ra,4(sp)
bfc015c8:	8fb00008 	lw	s0,8(sp)
bfc015cc:	8fb1000c 	lw	s1,12(sp)
bfc015d0:	8fb20010 	lw	s2,16(sp)
bfc015d4:	c7b40018 	lwc1	$f20,24(sp)
bfc015d8:	c7b5001c 	lwc1	$f21,28(sp)
bfc015dc:	8fbd0000 	lw	sp,0(sp)
bfc015e0:	03e00008 	jr	ra
bfc015e4:	00000000 	nop
bfc015e8:	3c0f7f80 	lui	t7,0x7f80
bfc015ec:	020fc02a 	slt	t8,s0,t7
bfc015f0:	3b180001 	xori	t8,t8,0x1
bfc015f4:	13000011 	beqz	t8,bfc0163c <__ieee754_rem_pio2f+0x4f8>
bfc015f8:	00000000 	nop
bfc015fc:	24010000 	li	at,0
bfc01600:	44810000 	mtc1	at,$f0
bfc01604:	24190004 	li	t9,4
bfc01608:	02592021 	addu	a0,s2,t9
bfc0160c:	e4800000 	swc1	$f0,0(a0)
bfc01610:	e6400000 	swc1	$f0,0(s2)
bfc01614:	00001021 	move	v0,zero
bfc01618:	8fbf0004 	lw	ra,4(sp)
bfc0161c:	8fb00008 	lw	s0,8(sp)
bfc01620:	8fb1000c 	lw	s1,12(sp)
bfc01624:	8fb20010 	lw	s2,16(sp)
bfc01628:	c7b40018 	lwc1	$f20,24(sp)
bfc0162c:	c7b5001c 	lwc1	$f21,28(sp)
bfc01630:	8fbd0000 	lw	sp,0(sp)
bfc01634:	03e00008 	jr	ra
bfc01638:	00000000 	nop
bfc0163c:	24050017 	li	a1,23
bfc01640:	00b03007 	srav	a2,s0,a1
bfc01644:	24070086 	li	a3,134
bfc01648:	00c73023 	subu	a2,a2,a3
bfc0164c:	27a20398 	addiu	v0,sp,920
bfc01650:	24030017 	li	v1,23
bfc01654:	00664004 	sllv	t0,a2,v1
bfc01658:	02086023 	subu	t4,s0,t0
bfc0165c:	ac4c0000 	sw	t4,0(v0)
bfc01660:	27a90398 	addiu	t1,sp,920
bfc01664:	c5340000 	lwc1	$f20,0(t1)
bfc01668:	00005021 	move	t2,zero
bfc0166c:	b3f005b6 	spawn	bfc016d8 <__ieee754_rem_pio2f+0x594>
bfc01670:	27ab03d4 	addiu	t3,sp,980
bfc01674:	240c0004 	li	t4,4
bfc01678:	014c0018 	mult	t2,t4
bfc0167c:	00006012 	mflo	t4
bfc01680:	016c6821 	addu	t5,t3,t4
bfc01684:	4600a0a4 	cvt.w.s	$f2,$f20
bfc01688:	440e1000 	mfc1	t6,$f2
bfc0168c:	448e2000 	mtc1	t6,$f4
bfc01690:	468021a0 	cvt.s.w	$f6,$f4
bfc01694:	e5a60000 	swc1	$f6,0(t5)
bfc01698:	27af03d4 	addiu	t7,sp,980
bfc0169c:	24180004 	li	t8,4
bfc016a0:	01580018 	mult	t2,t8
bfc016a4:	0000c812 	mflo	t9
bfc016a8:	01f92021 	addu	a0,t7,t9
bfc016ac:	c4880000 	lwc1	$f8,0(a0)
bfc016b0:	4608a281 	sub.s	$f10,$f20,$f8
bfc016b4:	27850410 	addiu	a1,gp,1040
bfc016b8:	c4b00000 	lwc1	$f16,0(a1)
bfc016bc:	46105502 	mul.s	$f20,$f10,$f16
bfc016c0:	24070001 	li	a3,1
bfc016c4:	01475021 	addu	t2,t2,a3
bfc016c8:	24070002 	li	a3,2
bfc016cc:	0147102a 	slt	v0,t2,a3
bfc016d0:	38420001 	xori	v0,v0,0x1
bfc016d4:	4bf005b6 	cqip	bfc016d8 <__ieee754_rem_pio2f+0x594>
bfc016d8:	53f005b6 	pslice_entry	bfc016d8 <__ieee754_rem_pio2f+0x594>
bfc016dc:	24070001 	li	a3,1
bfc016e0:	01475021 	addu	t2,t2,a3
bfc016e4:	24070002 	li	a3,2
bfc016e8:	0147102a 	slt	v0,t2,a3
bfc016ec:	38420001 	xori	v0,v0,0x1
bfc016f0:	57f005b6 	pslice_exit	bfc016d8 <__ieee754_rem_pio2f+0x594>
bfc016f4:	1040ffdd 	beqz	v0,bfc0166c <__ieee754_rem_pio2f+0x528>
bfc016f8:	00000000 	nop
bfc016fc:	27a303dc 	addiu	v1,sp,988
bfc01700:	e4740000 	swc1	$f20,0(v1)
bfc01704:	24070003 	li	a3,3
bfc01708:	27a803d0 	addiu	t0,sp,976
bfc0170c:	24090004 	li	t1,4
bfc01710:	00e90018 	mult	a3,t1
bfc01714:	00005012 	mflo	t2
bfc01718:	010a5821 	addu	t3,t0,t2
bfc0171c:	c5720000 	lwc1	$f18,0(t3)
bfc01720:	278c040c 	addiu	t4,gp,1036
bfc01724:	c58c0000 	lwc1	$f12,0(t4)
bfc01728:	240d0001 	li	t5,1
bfc0172c:	460c903a 	c.seq.s	$f18,$f12
bfc01730:	45010002 	bc1t	bfc0173c <__ieee754_rem_pio2f+0x5f8>
bfc01734:	00000000 	nop
bfc01738:	00006821 	move	t5,zero
bfc0173c:	11a00017 	beqz	t5,bfc0179c <__ieee754_rem_pio2f+0x658>
bfc01740:	00000000 	nop
bfc01744:	b3f005e2 	spawn	bfc01788 <__ieee754_rem_pio2f+0x644>
bfc01748:	240e0001 	li	t6,1
bfc0174c:	00ee3823 	subu	a3,a3,t6
bfc01750:	27af03d0 	addiu	t7,sp,976
bfc01754:	24180004 	li	t8,4
bfc01758:	00f80018 	mult	a3,t8
bfc0175c:	0000c812 	mflo	t9
bfc01760:	01f92021 	addu	a0,t7,t9
bfc01764:	c48e0000 	lwc1	$f14,0(a0)
bfc01768:	2785040c 	addiu	a1,gp,1036
bfc0176c:	c4a00000 	lwc1	$f0,0(a1)
bfc01770:	24020001 	li	v0,1
bfc01774:	4600703a 	c.seq.s	$f14,$f0
bfc01778:	45010002 	bc1t	bfc01784 <__ieee754_rem_pio2f+0x640>
bfc0177c:	00000000 	nop
bfc01780:	00001021 	move	v0,zero
bfc01784:	4bf005e2 	cqip	bfc01788 <__ieee754_rem_pio2f+0x644>
bfc01788:	53f005e2 	pslice_entry	bfc01788 <__ieee754_rem_pio2f+0x644>
bfc0178c:	00001021 	move	v0,zero
bfc01790:	57f005e2 	pslice_exit	bfc01788 <__ieee754_rem_pio2f+0x644>
bfc01794:	1440ffeb 	bnez	v0,bfc01744 <__ieee754_rem_pio2f+0x600>
bfc01798:	00000000 	nop
bfc0179c:	3c08bfc0 	lui	t0,0xbfc0
bfc017a0:	25081854 	addiu	t0,t0,6228
bfc017a4:	27a403d4 	addiu	a0,sp,980
bfc017a8:	24020002 	li	v0,2
bfc017ac:	3c03a00c 	lui	v1,0xa00c
bfc017b0:	24630014 	addiu	v1,v1,20
bfc017b4:	02402821 	move	a1,s2
bfc017b8:	03a0f021 	move	s8,sp
bfc017bc:	03a0003e 	fst	sp
bfc017c0:	afa2ffec 	sw	v0,-20(sp)
bfc017c4:	afa3ffe8 	sw	v1,-24(sp)
bfc017c8:	03e04009 	jalr	t0,ra
bfc017cc:	00000000 	nop
bfc017d0:	00001821 	move	v1,zero
bfc017d4:	0223402a 	slt	t0,s1,v1
bfc017d8:	11000015 	beqz	t0,bfc01830 <__ieee754_rem_pio2f+0x6ec>
bfc017dc:	00000000 	nop
bfc017e0:	c6420000 	lwc1	$f2,0(s2)
bfc017e4:	46001107 	neg.s	$f4,$f2
bfc017e8:	e6440000 	swc1	$f4,0(s2)
bfc017ec:	24090004 	li	t1,4
bfc017f0:	02495021 	addu	t2,s2,t1
bfc017f4:	240b0004 	li	t3,4
bfc017f8:	024b6021 	addu	t4,s2,t3
bfc017fc:	c5860000 	lwc1	$f6,0(t4)
bfc01800:	46003207 	neg.s	$f8,$f6
bfc01804:	e5480000 	swc1	$f8,0(t2)
bfc01808:	00021023 	negu	v0,v0
bfc0180c:	8fbf0004 	lw	ra,4(sp)
bfc01810:	8fb00008 	lw	s0,8(sp)
bfc01814:	8fb1000c 	lw	s1,12(sp)
bfc01818:	8fb20010 	lw	s2,16(sp)
bfc0181c:	c7b40018 	lwc1	$f20,24(sp)
bfc01820:	c7b5001c 	lwc1	$f21,28(sp)
bfc01824:	8fbd0000 	lw	sp,0(sp)
bfc01828:	03e00008 	jr	ra
bfc0182c:	00000000 	nop
bfc01830:	8fbf0004 	lw	ra,4(sp)
bfc01834:	8fb00008 	lw	s0,8(sp)
bfc01838:	8fb1000c 	lw	s1,12(sp)
bfc0183c:	8fb20010 	lw	s2,16(sp)
bfc01840:	c7b40018 	lwc1	$f20,24(sp)
bfc01844:	c7b5001c 	lwc1	$f21,28(sp)
bfc01848:	8fbd0000 	lw	sp,0(sp)
bfc0184c:	03e00008 	jr	ra
bfc01850:	00000000 	nop

bfc01854 <__kernel_rem_pio2f>:
bfc01854:	27bdf620 	addiu	sp,sp,-2528
bfc01858:	b3f00644 	spawn	bfc01910 <__kernel_rem_pio2f+0xbc>
bfc0185c:	0000003f 	ust
bfc01860:	afbe0000 	sw	s8,0(sp)
bfc01864:	afbf0004 	sw	ra,4(sp)
bfc01868:	afb00008 	sw	s0,8(sp)
bfc0186c:	afb1000c 	sw	s1,12(sp)
bfc01870:	afb20010 	sw	s2,16(sp)
bfc01874:	afb30014 	sw	s3,20(sp)
bfc01878:	afb40018 	sw	s4,24(sp)
bfc0187c:	afb5001c 	sw	s5,28(sp)
bfc01880:	afb60020 	sw	s6,32(sp)
bfc01884:	afb70024 	sw	s7,36(sp)
bfc01888:	e7b40028 	swc1	$f20,40(sp)
bfc0188c:	e7b5002c 	swc1	$f21,44(sp)
bfc01890:	e7b60030 	swc1	$f22,48(sp)
bfc01894:	e7b70034 	swc1	$f23,52(sp)
bfc01898:	afa409dc 	sw	a0,2524(sp)
bfc0189c:	00a0b021 	move	s6,a1
bfc018a0:	278a0430 	addiu	t2,gp,1072
bfc018a4:	240b0004 	li	t3,4
bfc018a8:	8fa409cc 	lw	a0,2508(sp)
bfc018ac:	008b0018 	mult	a0,t3
bfc018b0:	00006012 	mflo	t4
bfc018b4:	014c6821 	addu	t5,t2,t4
bfc018b8:	8db50000 	lw	s5,0(t5)
bfc018bc:	240e0001 	li	t6,1
bfc018c0:	00eea023 	subu	s4,a3,t6
bfc018c4:	240f0003 	li	t7,3
bfc018c8:	00cfc023 	subu	t8,a2,t7
bfc018cc:	24190008 	li	t9,8
bfc018d0:	17200002 	bnez	t9,bfc018dc <__kernel_rem_pio2f+0x88>
bfc018d4:	0319001a 	div	zero,t8,t9
bfc018d8:	0007000d 	break	0x7
bfc018dc:	2401ffff 	li	at,-1
bfc018e0:	17210004 	bne	t9,at,bfc018f4 <__kernel_rem_pio2f+0xa0>
bfc018e4:	3c018000 	lui	at,0x8000
bfc018e8:	17010002 	bne	t8,at,bfc018f4 <__kernel_rem_pio2f+0xa0>
bfc018ec:	00000000 	nop
bfc018f0:	0006000d 	break	0x6
bfc018f4:	00009812 	mflo	s3
bfc018f8:	00002021 	move	a0,zero
bfc018fc:	0264282a 	slt	a1,s3,a0
bfc01900:	10a00002 	beqz	a1,bfc0190c <__kernel_rem_pio2f+0xb8>
bfc01904:	00000000 	nop
bfc01908:	00009821 	move	s3,zero
bfc0190c:	4bf00644 	cqip	bfc01910 <__kernel_rem_pio2f+0xbc>
bfc01910:	53f00644 	pslice_entry	bfc01910 <__kernel_rem_pio2f+0xbc>
bfc01914:	27bdf620 	addiu	sp,sp,-2528
bfc01918:	240e0001 	li	t6,1
bfc0191c:	57f00644 	pslice_exit	bfc01910 <__kernel_rem_pio2f+0xbc>
bfc01920:	b3f0067d 	spawn	bfc019f4 <__kernel_rem_pio2f+0x1a0>
bfc01924:	24070008 	li	a3,8
bfc01928:	24020001 	li	v0,1
bfc0192c:	02621021 	addu	v0,s3,v0
bfc01930:	00e20018 	mult	a3,v0
bfc01934:	00001812 	mflo	v1
bfc01938:	00c3b823 	subu	s7,a2,v1
bfc0193c:	02747023 	subu	t6,s3,s4
bfc01940:	02958021 	addu	s0,s4,s5
bfc01944:	00001821 	move	v1,zero
bfc01948:	0203402a 	slt	t0,s0,v1
bfc0194c:	39080001 	xori	t0,t0,0x1
bfc01950:	11000027 	beqz	t0,bfc019f0 <__kernel_rem_pio2f+0x19c>
bfc01954:	00000000 	nop
bfc01958:	b3f00674 	spawn	bfc019d0 <__kernel_rem_pio2f+0x17c>
bfc0195c:	00004821 	move	t1,zero
bfc01960:	01c9502a 	slt	t2,t6,t1
bfc01964:	11400005 	beqz	t2,bfc0197c <__kernel_rem_pio2f+0x128>
bfc01968:	00000000 	nop
bfc0196c:	278b040c 	addiu	t3,gp,1036
bfc01970:	c5660000 	lwc1	$f6,0(t3)
bfc01974:	0bf00667 	j	bfc0199c <__kernel_rem_pio2f+0x148>
bfc01978:	00000000 	nop
bfc0197c:	240c0004 	li	t4,4
bfc01980:	01cc0018 	mult	t6,t4
bfc01984:	00006812 	mflo	t5
bfc01988:	8fb909c8 	lw	t9,2504(sp)
bfc0198c:	032d7821 	addu	t7,t9,t5
bfc01990:	8def0000 	lw	t7,0(t7)
bfc01994:	448f4000 	mtc1	t7,$f8
bfc01998:	468041a0 	cvt.s.w	$f6,$f8
bfc0199c:	27b808e8 	addiu	t8,sp,2280
bfc019a0:	24190004 	li	t9,4
bfc019a4:	00790018 	mult	v1,t9
bfc019a8:	00002012 	mflo	a0
bfc019ac:	03042821 	addu	a1,t8,a0
bfc019b0:	e4a60000 	swc1	$f6,0(a1)
bfc019b4:	24060001 	li	a2,1
bfc019b8:	00661821 	addu	v1,v1,a2
bfc019bc:	24070001 	li	a3,1
bfc019c0:	01c77021 	addu	t6,t6,a3
bfc019c4:	0203102a 	slt	v0,s0,v1
bfc019c8:	38420001 	xori	v0,v0,0x1
bfc019cc:	4bf00674 	cqip	bfc019d0 <__kernel_rem_pio2f+0x17c>
bfc019d0:	53f00674 	pslice_entry	bfc019d0 <__kernel_rem_pio2f+0x17c>
bfc019d4:	24060001 	li	a2,1
bfc019d8:	00661821 	addu	v1,v1,a2
bfc019dc:	0203102a 	slt	v0,s0,v1
bfc019e0:	38420001 	xori	v0,v0,0x1
bfc019e4:	57f00674 	pslice_exit	bfc019d0 <__kernel_rem_pio2f+0x17c>
bfc019e8:	1440ffdb 	bnez	v0,bfc01958 <__kernel_rem_pio2f+0x104>
bfc019ec:	00000000 	nop
bfc019f0:	4bf0067d 	cqip	bfc019f4 <__kernel_rem_pio2f+0x1a0>
bfc019f4:	53f0067d 	pslice_entry	bfc019f4 <__kernel_rem_pio2f+0x1a0>
bfc019f8:	57f0067d 	pslice_exit	bfc019f4 <__kernel_rem_pio2f+0x1a0>
bfc019fc:	b3f006b9 	spawn	bfc01ae4 <__kernel_rem_pio2f+0x290>
bfc01a00:	00001821 	move	v1,zero
bfc01a04:	02a3402a 	slt	t0,s5,v1
bfc01a08:	39080001 	xori	t0,t0,0x1
bfc01a0c:	11000033 	beqz	t0,bfc01adc <__kernel_rem_pio2f+0x288>
bfc01a10:	00000000 	nop
bfc01a14:	00001821 	move	v1,zero
bfc01a18:	b3f006ae 	spawn	bfc01ab8 <__kernel_rem_pio2f+0x264>
bfc01a1c:	00007021 	move	t6,zero
bfc01a20:	24010000 	li	at,0
bfc01a24:	44810000 	mtc1	at,$f0
bfc01a28:	028e482a 	slt	t1,s4,t6
bfc01a2c:	39290001 	xori	t1,t1,0x1
bfc01a30:	11200017 	beqz	t1,bfc01a90 <__kernel_rem_pio2f+0x23c>
bfc01a34:	00000000 	nop
bfc01a38:	240a0004 	li	t2,4
bfc01a3c:	01ca0018 	mult	t6,t2
bfc01a40:	00005812 	mflo	t3
bfc01a44:	8fb809dc 	lw	t8,2524(sp)
bfc01a48:	030b6021 	addu	t4,t8,t3
bfc01a4c:	c58a0000 	lwc1	$f10,0(t4)
bfc01a50:	27ad08e8 	addiu	t5,sp,2280
bfc01a54:	02837821 	addu	t7,s4,v1
bfc01a58:	01ee7823 	subu	t7,t7,t6
bfc01a5c:	24180004 	li	t8,4
bfc01a60:	01f80018 	mult	t7,t8
bfc01a64:	0000c812 	mflo	t9
bfc01a68:	01b92021 	addu	a0,t5,t9
bfc01a6c:	c4900000 	lwc1	$f16,0(a0)
bfc01a70:	46105482 	mul.s	$f18,$f10,$f16
bfc01a74:	46120000 	add.s	$f0,$f0,$f18
bfc01a78:	24050001 	li	a1,1
bfc01a7c:	01c57021 	addu	t6,t6,a1
bfc01a80:	028e302a 	slt	a2,s4,t6
bfc01a84:	38c60001 	xori	a2,a2,0x1
bfc01a88:	14c0ffeb 	bnez	a2,bfc01a38 <__kernel_rem_pio2f+0x1e4>
bfc01a8c:	00000000 	nop
bfc01a90:	27a70848 	addiu	a3,sp,2120
bfc01a94:	24020004 	li	v0,4
bfc01a98:	00620018 	mult	v1,v0
bfc01a9c:	00004012 	mflo	t0
bfc01aa0:	00e84021 	addu	t0,a3,t0
bfc01aa4:	e5000000 	swc1	$f0,0(t0)
bfc01aa8:	24090001 	li	t1,1
bfc01aac:	00691821 	addu	v1,v1,t1
bfc01ab0:	02a3502a 	slt	t2,s5,v1
bfc01ab4:	4bf006ae 	cqip	bfc01ab8 <__kernel_rem_pio2f+0x264>
bfc01ab8:	53f006ae 	pslice_entry	bfc01ab8 <__kernel_rem_pio2f+0x264>
bfc01abc:	24090001 	li	t1,1
bfc01ac0:	00691821 	addu	v1,v1,t1
bfc01ac4:	02a3502a 	slt	t2,s5,v1
bfc01ac8:	57f006ae 	pslice_exit	bfc01ab8 <__kernel_rem_pio2f+0x264>
bfc01acc:	1140ffd2 	beqz	t2,bfc01a18 <__kernel_rem_pio2f+0x1c4>
bfc01ad0:	00000000 	nop
bfc01ad4:	0bf006b8 	j	bfc01ae0 <__kernel_rem_pio2f+0x28c>
bfc01ad8:	00000000 	nop
bfc01adc:	00001821 	move	v1,zero
bfc01ae0:	4bf006b9 	cqip	bfc01ae4 <__kernel_rem_pio2f+0x290>
bfc01ae4:	53f006b9 	pslice_entry	bfc01ae4 <__kernel_rem_pio2f+0x290>
bfc01ae8:	57f006b9 	pslice_exit	bfc01ae4 <__kernel_rem_pio2f+0x290>
bfc01aec:	b3f00847 	spawn	bfc0211c <__kernel_rem_pio2f+0x8c8>
bfc01af0:	02a09021 	move	s2,s5
bfc01af4:	b3f00842 	spawn	bfc02108 <__kernel_rem_pio2f+0x8b4>
bfc01af8:	00001821 	move	v1,zero
bfc01afc:	02407021 	move	t6,s2
bfc01b00:	27ab0848 	addiu	t3,sp,2120
bfc01b04:	240c0004 	li	t4,4
bfc01b08:	024c0018 	mult	s2,t4
bfc01b0c:	00006812 	mflo	t5
bfc01b10:	016d7821 	addu	t7,t3,t5
bfc01b14:	c5f40000 	lwc1	$f20,0(t7)
bfc01b18:	00007821 	move	t7,zero
bfc01b1c:	01eec02a 	slt	t8,t7,t6
bfc01b20:	13000023 	beqz	t8,bfc01bb0 <__kernel_rem_pio2f+0x35c>
bfc01b24:	00000000 	nop
bfc01b28:	27990478 	addiu	t9,gp,1144
bfc01b2c:	c72c0000 	lwc1	$f12,0(t9)
bfc01b30:	46146382 	mul.s	$f14,$f12,$f20
bfc01b34:	46007024 	cvt.w.s	$f0,$f14
bfc01b38:	44040000 	mfc1	a0,$f0
bfc01b3c:	44841000 	mtc1	a0,$f2
bfc01b40:	46801020 	cvt.s.w	$f0,$f2
bfc01b44:	27a50958 	addiu	a1,sp,2392
bfc01b48:	24060004 	li	a2,4
bfc01b4c:	00660018 	mult	v1,a2
bfc01b50:	00003812 	mflo	a3
bfc01b54:	00a71021 	addu	v0,a1,a3
bfc01b58:	27880410 	addiu	t0,gp,1040
bfc01b5c:	c5040000 	lwc1	$f4,0(t0)
bfc01b60:	46002182 	mul.s	$f6,$f4,$f0
bfc01b64:	4606a201 	sub.s	$f8,$f20,$f6
bfc01b68:	460042a4 	cvt.w.s	$f10,$f8
bfc01b6c:	44085000 	mfc1	t0,$f10
bfc01b70:	ac480000 	sw	t0,0(v0)
bfc01b74:	27a90844 	addiu	t1,sp,2116
bfc01b78:	240a0004 	li	t2,4
bfc01b7c:	01ca0018 	mult	t6,t2
bfc01b80:	00005812 	mflo	t3
bfc01b84:	012b6021 	addu	t4,t1,t3
bfc01b88:	c5900000 	lwc1	$f16,0(t4)
bfc01b8c:	46008500 	add.s	$f20,$f16,$f0
bfc01b90:	240d0001 	li	t5,1
bfc01b94:	006d1821 	addu	v1,v1,t5
bfc01b98:	240f0001 	li	t7,1
bfc01b9c:	01cf7023 	subu	t6,t6,t7
bfc01ba0:	00007821 	move	t7,zero
bfc01ba4:	01eec02a 	slt	t8,t7,t6
bfc01ba8:	1700ffdf 	bnez	t8,bfc01b28 <__kernel_rem_pio2f+0x2d4>
bfc01bac:	00000000 	nop
bfc01bb0:	3c08bfc0 	lui	t0,0xbfc0
bfc01bb4:	25082af0 	addiu	t0,t0,10992
bfc01bb8:	4600a306 	mov.s	$f12,$f20
bfc01bbc:	02e03021 	move	a2,s7
bfc01bc0:	03a0f021 	move	s8,sp
bfc01bc4:	03a0003e 	fst	sp
bfc01bc8:	03e04009 	jalr	t0,ra
bfc01bcc:	00000000 	nop
bfc01bd0:	46000506 	mov.s	$f20,$f0
bfc01bd4:	3c014100 	lui	at,0x4100
bfc01bd8:	4481b000 	mtc1	at,$f22
bfc01bdc:	3c08bfc0 	lui	t0,0xbfc0
bfc01be0:	25082da8 	addiu	t0,t0,11688
bfc01be4:	3c013e00 	lui	at,0x3e00
bfc01be8:	44819000 	mtc1	at,$f18
bfc01bec:	4612a302 	mul.s	$f12,$f20,$f18
bfc01bf0:	03a0f021 	move	s8,sp
bfc01bf4:	03a0003e 	fst	sp
bfc01bf8:	03e04009 	jalr	t0,ra
bfc01bfc:	00000000 	nop
bfc01c00:	4600b302 	mul.s	$f12,$f22,$f0
bfc01c04:	460ca501 	sub.s	$f20,$f20,$f12
bfc01c08:	4600a3a4 	cvt.w.s	$f14,$f20
bfc01c0c:	44107000 	mfc1	s0,$f14
bfc01c10:	44900000 	mtc1	s0,$f0
bfc01c14:	468000a0 	cvt.s.w	$f2,$f0
bfc01c18:	4602a501 	sub.s	$f20,$f20,$f2
bfc01c1c:	00008821 	move	s1,zero
bfc01c20:	0000c821 	move	t9,zero
bfc01c24:	0337202a 	slt	a0,t9,s7
bfc01c28:	10800021 	beqz	a0,bfc01cb0 <__kernel_rem_pio2f+0x45c>
bfc01c2c:	00000000 	nop
bfc01c30:	27a50954 	addiu	a1,sp,2388
bfc01c34:	24060004 	li	a2,4
bfc01c38:	02460018 	mult	s2,a2
bfc01c3c:	00003812 	mflo	a3
bfc01c40:	00a71021 	addu	v0,a1,a3
bfc01c44:	8c430000 	lw	v1,0(v0)
bfc01c48:	24080008 	li	t0,8
bfc01c4c:	0117c823 	subu	t9,t0,s7
bfc01c50:	03231807 	srav	v1,v1,t9
bfc01c54:	02038021 	addu	s0,s0,v1
bfc01c58:	27a90954 	addiu	t1,sp,2388
bfc01c5c:	240a0004 	li	t2,4
bfc01c60:	024a0018 	mult	s2,t2
bfc01c64:	00005812 	mflo	t3
bfc01c68:	012b6021 	addu	t4,t1,t3
bfc01c6c:	8d8d0000 	lw	t5,0(t4)
bfc01c70:	240e0008 	li	t6,8
bfc01c74:	01d7c023 	subu	t8,t6,s7
bfc01c78:	03037804 	sllv	t7,v1,t8
bfc01c7c:	01afc023 	subu	t8,t5,t7
bfc01c80:	ad980000 	sw	t8,0(t4)
bfc01c84:	27b90954 	addiu	t9,sp,2388
bfc01c88:	24040004 	li	a0,4
bfc01c8c:	02440018 	mult	s2,a0
bfc01c90:	00002812 	mflo	a1
bfc01c94:	03253021 	addu	a2,t9,a1
bfc01c98:	8cc70000 	lw	a3,0(a2)
bfc01c9c:	24020007 	li	v0,7
bfc01ca0:	00577823 	subu	t7,v0,s7
bfc01ca4:	01e78807 	srav	s1,a3,t7
bfc01ca8:	0bf00745 	j	bfc01d14 <__kernel_rem_pio2f+0x4c0>
bfc01cac:	00000000 	nop
bfc01cb0:	00001821 	move	v1,zero
bfc01cb4:	02e34026 	xor	t0,s7,v1
bfc01cb8:	2d080001 	sltiu	t0,t0,1
bfc01cbc:	1100000b 	beqz	t0,bfc01cec <__kernel_rem_pio2f+0x498>
bfc01cc0:	00000000 	nop
bfc01cc4:	27a90954 	addiu	t1,sp,2388
bfc01cc8:	240a0004 	li	t2,4
bfc01ccc:	024a0018 	mult	s2,t2
bfc01cd0:	00005812 	mflo	t3
bfc01cd4:	012b6021 	addu	t4,t1,t3
bfc01cd8:	8d8d0000 	lw	t5,0(t4)
bfc01cdc:	240e0008 	li	t6,8
bfc01ce0:	01cd8807 	srav	s1,t5,t6
bfc01ce4:	0bf00745 	j	bfc01d14 <__kernel_rem_pio2f+0x4c0>
bfc01ce8:	00000000 	nop
bfc01cec:	3c013f00 	lui	at,0x3f00
bfc01cf0:	44812000 	mtc1	at,$f4
bfc01cf4:	240f0001 	li	t7,1
bfc01cf8:	4614203e 	c.le.s	$f4,$f20
bfc01cfc:	45010002 	bc1t	bfc01d08 <__kernel_rem_pio2f+0x4b4>
bfc01d00:	00000000 	nop
bfc01d04:	00007821 	move	t7,zero
bfc01d08:	11e00002 	beqz	t7,bfc01d14 <__kernel_rem_pio2f+0x4c0>
bfc01d0c:	00000000 	nop
bfc01d10:	24110002 	li	s1,2
bfc01d14:	0000c021 	move	t8,zero
bfc01d18:	0311c82a 	slt	t9,t8,s1
bfc01d1c:	13200070 	beqz	t9,bfc01ee0 <__kernel_rem_pio2f+0x68c>
bfc01d20:	00000000 	nop
bfc01d24:	24040001 	li	a0,1
bfc01d28:	02048021 	addu	s0,s0,a0
bfc01d2c:	00001021 	move	v0,zero
bfc01d30:	00002821 	move	a1,zero
bfc01d34:	00b2302a 	slt	a2,a1,s2
bfc01d38:	10c0002d 	beqz	a2,bfc01df0 <__kernel_rem_pio2f+0x59c>
bfc01d3c:	00000000 	nop
bfc01d40:	00001821 	move	v1,zero
bfc01d44:	27a70958 	addiu	a3,sp,2392
bfc01d48:	24080004 	li	t0,4
bfc01d4c:	00680018 	mult	v1,t0
bfc01d50:	00004012 	mflo	t0
bfc01d54:	00e84821 	addu	t1,a3,t0
bfc01d58:	8d2e0000 	lw	t6,0(t1)
bfc01d5c:	00005021 	move	t2,zero
bfc01d60:	004a5826 	xor	t3,v0,t2
bfc01d64:	2d6b0001 	sltiu	t3,t3,1
bfc01d68:	11600011 	beqz	t3,bfc01db0 <__kernel_rem_pio2f+0x55c>
bfc01d6c:	00000000 	nop
bfc01d70:	00006021 	move	t4,zero
bfc01d74:	01cc6826 	xor	t5,t6,t4
bfc01d78:	000d682b 	sltu	t5,zero,t5
bfc01d7c:	11a00014 	beqz	t5,bfc01dd0 <__kernel_rem_pio2f+0x57c>
bfc01d80:	00000000 	nop
bfc01d84:	24020001 	li	v0,1
bfc01d88:	27af0958 	addiu	t7,sp,2392
bfc01d8c:	24180004 	li	t8,4
bfc01d90:	00780018 	mult	v1,t8
bfc01d94:	0000c012 	mflo	t8
bfc01d98:	01f8c821 	addu	t9,t7,t8
bfc01d9c:	24040100 	li	a0,256
bfc01da0:	008e2823 	subu	a1,a0,t6
bfc01da4:	af250000 	sw	a1,0(t9)
bfc01da8:	0bf00774 	j	bfc01dd0 <__kernel_rem_pio2f+0x57c>
bfc01dac:	00000000 	nop
bfc01db0:	27a60958 	addiu	a2,sp,2392
bfc01db4:	24070004 	li	a3,4
bfc01db8:	00670018 	mult	v1,a3
bfc01dbc:	00004012 	mflo	t0
bfc01dc0:	00c84021 	addu	t0,a2,t0
bfc01dc4:	240900ff 	li	t1,255
bfc01dc8:	012e4823 	subu	t1,t1,t6
bfc01dcc:	ad090000 	sw	t1,0(t0)
bfc01dd0:	240a0001 	li	t2,1
bfc01dd4:	006a1821 	addu	v1,v1,t2
bfc01dd8:	0072582a 	slt	t3,v1,s2
bfc01ddc:	396b0001 	xori	t3,t3,0x1
bfc01de0:	1160ffd8 	beqz	t3,bfc01d44 <__kernel_rem_pio2f+0x4f0>
bfc01de4:	00000000 	nop
bfc01de8:	0bf0077d 	j	bfc01df4 <__kernel_rem_pio2f+0x5a0>
bfc01dec:	00000000 	nop
bfc01df0:	00001821 	move	v1,zero
bfc01df4:	00006021 	move	t4,zero
bfc01df8:	0197682a 	slt	t5,t4,s7
bfc01dfc:	11a00021 	beqz	t5,bfc01e84 <__kernel_rem_pio2f+0x630>
bfc01e00:	00000000 	nop
bfc01e04:	240e0001 	li	t6,1
bfc01e08:	02ee7826 	xor	t7,s7,t6
bfc01e0c:	2def0001 	sltiu	t7,t7,1
bfc01e10:	15e00008 	bnez	t7,bfc01e34 <__kernel_rem_pio2f+0x5e0>
bfc01e14:	00000000 	nop
bfc01e18:	24180002 	li	t8,2
bfc01e1c:	02f8c826 	xor	t9,s7,t8
bfc01e20:	2f390001 	sltiu	t9,t9,1
bfc01e24:	1720000e 	bnez	t9,bfc01e60 <__kernel_rem_pio2f+0x60c>
bfc01e28:	00000000 	nop
bfc01e2c:	0bf007a1 	j	bfc01e84 <__kernel_rem_pio2f+0x630>
bfc01e30:	00000000 	nop
bfc01e34:	27a30954 	addiu	v1,sp,2388
bfc01e38:	24080004 	li	t0,4
bfc01e3c:	02480018 	mult	s2,t0
bfc01e40:	00004812 	mflo	t1
bfc01e44:	00695021 	addu	t2,v1,t1
bfc01e48:	8d450000 	lw	a1,0(t2)
bfc01e4c:	240b007f 	li	t3,127
bfc01e50:	00ab2024 	and	a0,a1,t3
bfc01e54:	ad440000 	sw	a0,0(t2)
bfc01e58:	0bf007a1 	j	bfc01e84 <__kernel_rem_pio2f+0x630>
bfc01e5c:	00000000 	nop
bfc01e60:	27a40954 	addiu	a0,sp,2388
bfc01e64:	24050004 	li	a1,4
bfc01e68:	02450018 	mult	s2,a1
bfc01e6c:	00003012 	mflo	a2
bfc01e70:	00861821 	addu	v1,a0,a2
bfc01e74:	8c670000 	lw	a3,0(v1)
bfc01e78:	2408003f 	li	t0,63
bfc01e7c:	00e83024 	and	a2,a3,t0
bfc01e80:	ac660000 	sw	a2,0(v1)
bfc01e84:	240c0002 	li	t4,2
bfc01e88:	022c6826 	xor	t5,s1,t4
bfc01e8c:	2dad0001 	sltiu	t5,t5,1
bfc01e90:	11a00013 	beqz	t5,bfc01ee0 <__kernel_rem_pio2f+0x68c>
bfc01e94:	00000000 	nop
bfc01e98:	278e0354 	addiu	t6,gp,852
bfc01e9c:	c5c60000 	lwc1	$f6,0(t6)
bfc01ea0:	46143501 	sub.s	$f20,$f6,$f20
bfc01ea4:	00007821 	move	t7,zero
bfc01ea8:	004fc026 	xor	t8,v0,t7
bfc01eac:	0018c02b 	sltu	t8,zero,t8
bfc01eb0:	1300000b 	beqz	t8,bfc01ee0 <__kernel_rem_pio2f+0x68c>
bfc01eb4:	00000000 	nop
bfc01eb8:	3c08bfc0 	lui	t0,0xbfc0
bfc01ebc:	25082af0 	addiu	t0,t0,10992
bfc01ec0:	27990354 	addiu	t9,gp,852
bfc01ec4:	c72c0000 	lwc1	$f12,0(t9)
bfc01ec8:	02e03021 	move	a2,s7
bfc01ecc:	03a0f021 	move	s8,sp
bfc01ed0:	03a0003e 	fst	sp
bfc01ed4:	03e04009 	jalr	t0,ra
bfc01ed8:	00000000 	nop
bfc01edc:	4600a501 	sub.s	$f20,$f20,$f0
bfc01ee0:	2784040c 	addiu	a0,gp,1036
bfc01ee4:	c4880000 	lwc1	$f8,0(a0)
bfc01ee8:	24050001 	li	a1,1
bfc01eec:	4608a03a 	c.seq.s	$f20,$f8
bfc01ef0:	45010002 	bc1t	bfc01efc <__kernel_rem_pio2f+0x6a8>
bfc01ef4:	00000000 	nop
bfc01ef8:	00002821 	move	a1,zero
bfc01efc:	10a00086 	beqz	a1,bfc02118 <__kernel_rem_pio2f+0x8c4>
bfc01f00:	00000000 	nop
bfc01f04:	00007021 	move	t6,zero
bfc01f08:	24060001 	li	a2,1
bfc01f0c:	02463823 	subu	a3,s2,a2
bfc01f10:	00f5102a 	slt	v0,a3,s5
bfc01f14:	38420001 	xori	v0,v0,0x1
bfc01f18:	10400011 	beqz	v0,bfc01f60 <__kernel_rem_pio2f+0x70c>
bfc01f1c:	00000000 	nop
bfc01f20:	24030001 	li	v1,1
bfc01f24:	02431823 	subu	v1,s2,v1
bfc01f28:	27a80958 	addiu	t0,sp,2392
bfc01f2c:	24090004 	li	t1,4
bfc01f30:	00690018 	mult	v1,t1
bfc01f34:	00005012 	mflo	t2
bfc01f38:	010a5821 	addu	t3,t0,t2
bfc01f3c:	8d620000 	lw	v0,0(t3)
bfc01f40:	01c27025 	or	t6,t6,v0
bfc01f44:	240cffff 	li	t4,-1
bfc01f48:	006c1821 	addu	v1,v1,t4
bfc01f4c:	0075682a 	slt	t5,v1,s5
bfc01f50:	11a0fff5 	beqz	t5,bfc01f28 <__kernel_rem_pio2f+0x6d4>
bfc01f54:	00000000 	nop
bfc01f58:	0bf007da 	j	bfc01f68 <__kernel_rem_pio2f+0x714>
bfc01f5c:	00000000 	nop
bfc01f60:	240f0001 	li	t7,1
bfc01f64:	024f1823 	subu	v1,s2,t7
bfc01f68:	00007821 	move	t7,zero
bfc01f6c:	01cfc026 	xor	t8,t6,t7
bfc01f70:	2f180001 	sltiu	t8,t8,1
bfc01f74:	13000068 	beqz	t8,bfc02118 <__kernel_rem_pio2f+0x8c4>
bfc01f78:	00000000 	nop
bfc01f7c:	240b0001 	li	t3,1
bfc01f80:	27b90958 	addiu	t9,sp,2392
bfc01f84:	02ab2023 	subu	a0,s5,t3
bfc01f88:	24050004 	li	a1,4
bfc01f8c:	00850018 	mult	a0,a1
bfc01f90:	00003012 	mflo	a2
bfc01f94:	03263821 	addu	a3,t9,a2
bfc01f98:	8ce20000 	lw	v0,0(a3)
bfc01f9c:	00001821 	move	v1,zero
bfc01fa0:	00434026 	xor	t0,v0,v1
bfc01fa4:	2d080001 	sltiu	t0,t0,1
bfc01fa8:	1100000f 	beqz	t0,bfc01fe8 <__kernel_rem_pio2f+0x794>
bfc01fac:	00000000 	nop
bfc01fb0:	24090001 	li	t1,1
bfc01fb4:	01695821 	addu	t3,t3,t1
bfc01fb8:	27aa0958 	addiu	t2,sp,2392
bfc01fbc:	02ab6023 	subu	t4,s5,t3
bfc01fc0:	240d0004 	li	t5,4
bfc01fc4:	018d0018 	mult	t4,t5
bfc01fc8:	00007012 	mflo	t6
bfc01fcc:	014e7821 	addu	t7,t2,t6
bfc01fd0:	8df80000 	lw	t8,0(t7)
bfc01fd4:	0000c821 	move	t9,zero
bfc01fd8:	03192026 	xor	a0,t8,t9
bfc01fdc:	2c840001 	sltiu	a0,a0,1
bfc01fe0:	1480fff3 	bnez	a0,bfc01fb0 <__kernel_rem_pio2f+0x75c>
bfc01fe4:	00000000 	nop
bfc01fe8:	24050001 	li	a1,1
bfc01fec:	02453021 	addu	a2,s2,a1
bfc01ff0:	024b3821 	addu	a3,s2,t3
bfc01ff4:	00e6102a 	slt	v0,a3,a2
bfc01ff8:	38420001 	xori	v0,v0,0x1
bfc01ffc:	1040003e 	beqz	v0,bfc020f8 <__kernel_rem_pio2f+0x8a4>
bfc02000:	00000000 	nop
bfc02004:	24030001 	li	v1,1
bfc02008:	02431821 	addu	v1,s2,v1
bfc0200c:	27a808e8 	addiu	t0,sp,2280
bfc02010:	02834821 	addu	t1,s4,v1
bfc02014:	240a0004 	li	t2,4
bfc02018:	012a0018 	mult	t1,t2
bfc0201c:	00006012 	mflo	t4
bfc02020:	010c6021 	addu	t4,t0,t4
bfc02024:	02636821 	addu	t5,s3,v1
bfc02028:	240e0004 	li	t6,4
bfc0202c:	01ae0018 	mult	t5,t6
bfc02030:	00007812 	mflo	t7
bfc02034:	8fb809c8 	lw	t8,2504(sp)
bfc02038:	030fc021 	addu	t8,t8,t7
bfc0203c:	8f190000 	lw	t9,0(t8)
bfc02040:	44995000 	mtc1	t9,$f10
bfc02044:	46805420 	cvt.s.w	$f16,$f10
bfc02048:	e5900000 	swc1	$f16,0(t4)
bfc0204c:	00007021 	move	t6,zero
bfc02050:	24010000 	li	at,0
bfc02054:	44810000 	mtc1	at,$f0
bfc02058:	028e202a 	slt	a0,s4,t6
bfc0205c:	38840001 	xori	a0,a0,0x1
bfc02060:	10800017 	beqz	a0,bfc020c0 <__kernel_rem_pio2f+0x86c>
bfc02064:	00000000 	nop
bfc02068:	24050004 	li	a1,4
bfc0206c:	01c50018 	mult	t6,a1
bfc02070:	00003012 	mflo	a2
bfc02074:	8faf09dc 	lw	t7,2524(sp)
bfc02078:	01e63821 	addu	a3,t7,a2
bfc0207c:	c4f20000 	lwc1	$f18,0(a3)
bfc02080:	27a208e8 	addiu	v0,sp,2280
bfc02084:	02834021 	addu	t0,s4,v1
bfc02088:	010e4023 	subu	t0,t0,t6
bfc0208c:	24090004 	li	t1,4
bfc02090:	01090018 	mult	t0,t1
bfc02094:	00005012 	mflo	t2
bfc02098:	004a6021 	addu	t4,v0,t2
bfc0209c:	c58c0000 	lwc1	$f12,0(t4)
bfc020a0:	460c9382 	mul.s	$f14,$f18,$f12
bfc020a4:	460e0000 	add.s	$f0,$f0,$f14
bfc020a8:	240c0001 	li	t4,1
bfc020ac:	01cc7021 	addu	t6,t6,t4
bfc020b0:	028e682a 	slt	t5,s4,t6
bfc020b4:	39ad0001 	xori	t5,t5,0x1
bfc020b8:	15a0ffeb 	bnez	t5,bfc02068 <__kernel_rem_pio2f+0x814>
bfc020bc:	00000000 	nop
bfc020c0:	27ae0848 	addiu	t6,sp,2120
bfc020c4:	240f0004 	li	t7,4
bfc020c8:	006f0018 	mult	v1,t7
bfc020cc:	0000c012 	mflo	t8
bfc020d0:	01d8c821 	addu	t9,t6,t8
bfc020d4:	e7200000 	swc1	$f0,0(t9)
bfc020d8:	24040001 	li	a0,1
bfc020dc:	00641821 	addu	v1,v1,a0
bfc020e0:	024b2821 	addu	a1,s2,t3
bfc020e4:	00a3302a 	slt	a2,a1,v1
bfc020e8:	10c0ffc8 	beqz	a2,bfc0200c <__kernel_rem_pio2f+0x7b8>
bfc020ec:	00000000 	nop
bfc020f0:	0bf00840 	j	bfc02100 <__kernel_rem_pio2f+0x8ac>
bfc020f4:	00000000 	nop
bfc020f8:	24070001 	li	a3,1
bfc020fc:	02471821 	addu	v1,s2,a3
bfc02100:	024b9021 	addu	s2,s2,t3
bfc02104:	4bf00842 	cqip	bfc02108 <__kernel_rem_pio2f+0x8b4>
bfc02108:	53f00842 	pslice_entry	bfc02108 <__kernel_rem_pio2f+0x8b4>
bfc0210c:	57f00842 	pslice_exit	bfc02108 <__kernel_rem_pio2f+0x8b4>
bfc02110:	0bf006bd 	j	bfc01af4 <__kernel_rem_pio2f+0x2a0>
bfc02114:	00000000 	nop
bfc02118:	4bf00847 	cqip	bfc0211c <__kernel_rem_pio2f+0x8c8>
bfc0211c:	53f00847 	pslice_entry	bfc0211c <__kernel_rem_pio2f+0x8c8>
bfc02120:	57f00847 	pslice_exit	bfc0211c <__kernel_rem_pio2f+0x8c8>
bfc02124:	b3f008b9 	spawn	bfc022e4 <__kernel_rem_pio2f+0xa90>
bfc02128:	24010000 	li	at,0
bfc0212c:	44810000 	mtc1	at,$f0
bfc02130:	24020001 	li	v0,1
bfc02134:	4600a03a 	c.seq.s	$f20,$f0
bfc02138:	45010002 	bc1t	bfc02144 <__kernel_rem_pio2f+0x8f0>
bfc0213c:	00000000 	nop
bfc02140:	00001021 	move	v0,zero
bfc02144:	1040002b 	beqz	v0,bfc021f4 <__kernel_rem_pio2f+0x9a0>
bfc02148:	00000000 	nop
bfc0214c:	24030001 	li	v1,1
bfc02150:	02439023 	subu	s2,s2,v1
bfc02154:	24080008 	li	t0,8
bfc02158:	02e8b823 	subu	s7,s7,t0
bfc0215c:	27a90958 	addiu	t1,sp,2392
bfc02160:	240a0004 	li	t2,4
bfc02164:	024a0018 	mult	s2,t2
bfc02168:	00005812 	mflo	t3
bfc0216c:	012b6021 	addu	t4,t1,t3
bfc02170:	8d8d0000 	lw	t5,0(t4)
bfc02174:	00007021 	move	t6,zero
bfc02178:	01ae7826 	xor	t7,t5,t6
bfc0217c:	2def0001 	sltiu	t7,t7,1
bfc02180:	11e00057 	beqz	t7,bfc022e0 <__kernel_rem_pio2f+0xa8c>
bfc02184:	00000000 	nop
bfc02188:	b3f00871 	spawn	bfc021c4 <__kernel_rem_pio2f+0x970>
bfc0218c:	24180001 	li	t8,1
bfc02190:	02589023 	subu	s2,s2,t8
bfc02194:	24190008 	li	t9,8
bfc02198:	02f9b823 	subu	s7,s7,t9
bfc0219c:	27a40958 	addiu	a0,sp,2392
bfc021a0:	24050004 	li	a1,4
bfc021a4:	02450018 	mult	s2,a1
bfc021a8:	00003012 	mflo	a2
bfc021ac:	00863821 	addu	a3,a0,a2
bfc021b0:	8ce20000 	lw	v0,0(a3)
bfc021b4:	00001821 	move	v1,zero
bfc021b8:	00434026 	xor	t0,v0,v1
bfc021bc:	2d080001 	sltiu	t0,t0,1
bfc021c0:	4bf00871 	cqip	bfc021c4 <__kernel_rem_pio2f+0x970>
bfc021c4:	53f00871 	pslice_entry	bfc021c4 <__kernel_rem_pio2f+0x970>
bfc021c8:	00003012 	mflo	a2
bfc021cc:	00863821 	addu	a3,a0,a2
bfc021d0:	8ce20000 	lw	v0,0(a3)
bfc021d4:	00001821 	move	v1,zero
bfc021d8:	00434026 	xor	t0,v0,v1
bfc021dc:	2d080001 	sltiu	t0,t0,1
bfc021e0:	57f00871 	pslice_exit	bfc021c4 <__kernel_rem_pio2f+0x970>
bfc021e4:	1500ffe8 	bnez	t0,bfc02188 <__kernel_rem_pio2f+0x934>
bfc021e8:	00000000 	nop
bfc021ec:	0bf008b8 	j	bfc022e0 <__kernel_rem_pio2f+0xa8c>
bfc021f0:	00000000 	nop
bfc021f4:	3c08bfc0 	lui	t0,0xbfc0
bfc021f8:	25082af0 	addiu	t0,t0,10992
bfc021fc:	00173023 	negu	a2,s7
bfc02200:	4600a306 	mov.s	$f12,$f20
bfc02204:	03a0f021 	move	s8,sp
bfc02208:	03a0003e 	fst	sp
bfc0220c:	03e04009 	jalr	t0,ra
bfc02210:	00000000 	nop
bfc02214:	46000506 	mov.s	$f20,$f0
bfc02218:	27890410 	addiu	t1,gp,1040
bfc0221c:	c5220000 	lwc1	$f2,0(t1)
bfc02220:	240a0001 	li	t2,1
bfc02224:	4614103e 	c.le.s	$f2,$f20
bfc02228:	45010002 	bc1t	bfc02234 <__kernel_rem_pio2f+0x9e0>
bfc0222c:	00000000 	nop
bfc02230:	00005021 	move	t2,zero
bfc02234:	11400022 	beqz	t2,bfc022c0 <__kernel_rem_pio2f+0xa6c>
bfc02238:	00000000 	nop
bfc0223c:	278b0478 	addiu	t3,gp,1144
bfc02240:	c5640000 	lwc1	$f4,0(t3)
bfc02244:	46142182 	mul.s	$f6,$f4,$f20
bfc02248:	46003224 	cvt.w.s	$f8,$f6
bfc0224c:	440c4000 	mfc1	t4,$f8
bfc02250:	448c5000 	mtc1	t4,$f10
bfc02254:	46805020 	cvt.s.w	$f0,$f10
bfc02258:	27ad0958 	addiu	t5,sp,2392
bfc0225c:	240e0004 	li	t6,4
bfc02260:	024e0018 	mult	s2,t6
bfc02264:	00007812 	mflo	t7
bfc02268:	01afc021 	addu	t8,t5,t7
bfc0226c:	27990410 	addiu	t9,gp,1040
bfc02270:	c7300000 	lwc1	$f16,0(t9)
bfc02274:	46008482 	mul.s	$f18,$f16,$f0
bfc02278:	4612a301 	sub.s	$f12,$f20,$f18
bfc0227c:	460063a4 	cvt.w.s	$f14,$f12
bfc02280:	44047000 	mfc1	a0,$f14
bfc02284:	af040000 	sw	a0,0(t8)
bfc02288:	24050001 	li	a1,1
bfc0228c:	02459021 	addu	s2,s2,a1
bfc02290:	24060008 	li	a2,8
bfc02294:	02e6b821 	addu	s7,s7,a2
bfc02298:	27a70958 	addiu	a3,sp,2392
bfc0229c:	24020004 	li	v0,4
bfc022a0:	02420018 	mult	s2,v0
bfc022a4:	00001812 	mflo	v1
bfc022a8:	00e34021 	addu	t0,a3,v1
bfc022ac:	46000024 	cvt.w.s	$f0,$f0
bfc022b0:	44090000 	mfc1	t1,$f0
bfc022b4:	ad090000 	sw	t1,0(t0)
bfc022b8:	0bf008b8 	j	bfc022e0 <__kernel_rem_pio2f+0xa8c>
bfc022bc:	00000000 	nop
bfc022c0:	27aa0958 	addiu	t2,sp,2392
bfc022c4:	240b0004 	li	t3,4
bfc022c8:	024b0018 	mult	s2,t3
bfc022cc:	00006012 	mflo	t4
bfc022d0:	014c6821 	addu	t5,t2,t4
bfc022d4:	4600a0a4 	cvt.w.s	$f2,$f20
bfc022d8:	440e1000 	mfc1	t6,$f2
bfc022dc:	adae0000 	sw	t6,0(t5)
bfc022e0:	4bf008b9 	cqip	bfc022e4 <__kernel_rem_pio2f+0xa90>
bfc022e4:	53f008b9 	pslice_entry	bfc022e4 <__kernel_rem_pio2f+0xa90>
bfc022e8:	57f008b9 	pslice_exit	bfc022e4 <__kernel_rem_pio2f+0xa90>
bfc022ec:	b3f008ef 	spawn	bfc023bc <__kernel_rem_pio2f+0xb68>
bfc022f0:	3c08bfc0 	lui	t0,0xbfc0
bfc022f4:	25082af0 	addiu	t0,t0,10992
bfc022f8:	278f0354 	addiu	t7,gp,852
bfc022fc:	c5ec0000 	lwc1	$f12,0(t7)
bfc02300:	02e03021 	move	a2,s7
bfc02304:	03a0f021 	move	s8,sp
bfc02308:	03a0003e 	fst	sp
bfc0230c:	03e04009 	jalr	t0,ra
bfc02310:	00000000 	nop
bfc02314:	0000c021 	move	t8,zero
bfc02318:	0258c82a 	slt	t9,s2,t8
bfc0231c:	3b390001 	xori	t9,t9,0x1
bfc02320:	13200024 	beqz	t9,bfc023b4 <__kernel_rem_pio2f+0xb60>
bfc02324:	00000000 	nop
bfc02328:	02401821 	move	v1,s2
bfc0232c:	b3f008e3 	spawn	bfc0238c <__kernel_rem_pio2f+0xb38>
bfc02330:	27a40848 	addiu	a0,sp,2120
bfc02334:	24050004 	li	a1,4
bfc02338:	00650018 	mult	v1,a1
bfc0233c:	00003012 	mflo	a2
bfc02340:	00863821 	addu	a3,a0,a2
bfc02344:	27a20958 	addiu	v0,sp,2392
bfc02348:	24080004 	li	t0,4
bfc0234c:	00680018 	mult	v1,t0
bfc02350:	00004012 	mflo	t0
bfc02354:	00484821 	addu	t1,v0,t0
bfc02358:	8d2a0000 	lw	t2,0(t1)
bfc0235c:	448a2000 	mtc1	t2,$f4
bfc02360:	468021a0 	cvt.s.w	$f6,$f4
bfc02364:	46060202 	mul.s	$f8,$f0,$f6
bfc02368:	e4e80000 	swc1	$f8,0(a3)
bfc0236c:	278b0478 	addiu	t3,gp,1144
bfc02370:	c56a0000 	lwc1	$f10,0(t3)
bfc02374:	460a0002 	mul.s	$f0,$f0,$f10
bfc02378:	240cffff 	li	t4,-1
bfc0237c:	006c1821 	addu	v1,v1,t4
bfc02380:	00006821 	move	t5,zero
bfc02384:	006d702a 	slt	t6,v1,t5
bfc02388:	4bf008e3 	cqip	bfc0238c <__kernel_rem_pio2f+0xb38>
bfc0238c:	53f008e3 	pslice_entry	bfc0238c <__kernel_rem_pio2f+0xb38>
bfc02390:	240cffff 	li	t4,-1
bfc02394:	006c1821 	addu	v1,v1,t4
bfc02398:	00006821 	move	t5,zero
bfc0239c:	006d702a 	slt	t6,v1,t5
bfc023a0:	57f008e3 	pslice_exit	bfc0238c <__kernel_rem_pio2f+0xb38>
bfc023a4:	11c0ffe1 	beqz	t6,bfc0232c <__kernel_rem_pio2f+0xad8>
bfc023a8:	00000000 	nop
bfc023ac:	0bf008ee 	j	bfc023b8 <__kernel_rem_pio2f+0xb64>
bfc023b0:	00000000 	nop
bfc023b4:	02401821 	move	v1,s2
bfc023b8:	4bf008ef 	cqip	bfc023bc <__kernel_rem_pio2f+0xb68>
bfc023bc:	53f008ef 	pslice_entry	bfc023bc <__kernel_rem_pio2f+0xb68>
bfc023c0:	57f008ef 	pslice_exit	bfc023bc <__kernel_rem_pio2f+0xb68>
bfc023c4:	b3f0093b 	spawn	bfc024ec <__kernel_rem_pio2f+0xc98>
bfc023c8:	00007821 	move	t7,zero
bfc023cc:	024fc02a 	slt	t8,s2,t7
bfc023d0:	3b180001 	xori	t8,t8,0x1
bfc023d4:	13000043 	beqz	t8,bfc024e4 <__kernel_rem_pio2f+0xc90>
bfc023d8:	00000000 	nop
bfc023dc:	02401821 	move	v1,s2
bfc023e0:	b3f0092f 	spawn	bfc024bc <__kernel_rem_pio2f+0xc68>
bfc023e4:	24010000 	li	at,0
bfc023e8:	44810000 	mtc1	at,$f0
bfc023ec:	00005821 	move	t3,zero
bfc023f0:	02ab402a 	slt	t0,s5,t3
bfc023f4:	39080001 	xori	t0,t0,0x1
bfc023f8:	15000003 	bnez	t0,bfc02408 <__kernel_rem_pio2f+0xbb4>
bfc023fc:	00000000 	nop
bfc02400:	0bf00905 	j	bfc02414 <__kernel_rem_pio2f+0xbc0>
bfc02404:	00000000 	nop
bfc02408:	0243c823 	subu	t9,s2,v1
bfc0240c:	032b402a 	slt	t0,t9,t3
bfc02410:	39080001 	xori	t0,t0,0x1
bfc02414:	1100001d 	beqz	t0,bfc0248c <__kernel_rem_pio2f+0xc38>
bfc02418:	00000000 	nop
bfc0241c:	2784043c 	addiu	a0,gp,1084
bfc02420:	24050004 	li	a1,4
bfc02424:	01650018 	mult	t3,a1
bfc02428:	00003012 	mflo	a2
bfc0242c:	00863821 	addu	a3,a0,a2
bfc02430:	c4f00000 	lwc1	$f16,0(a3)
bfc02434:	27a20848 	addiu	v0,sp,2120
bfc02438:	006b4021 	addu	t0,v1,t3
bfc0243c:	24090004 	li	t1,4
bfc02440:	01090018 	mult	t0,t1
bfc02444:	00004812 	mflo	t1
bfc02448:	00495021 	addu	t2,v0,t1
bfc0244c:	c5520000 	lwc1	$f18,0(t2)
bfc02450:	46128302 	mul.s	$f12,$f16,$f18
bfc02454:	460c0000 	add.s	$f0,$f0,$f12
bfc02458:	240c0001 	li	t4,1
bfc0245c:	016c5821 	addu	t3,t3,t4
bfc02460:	02ab402a 	slt	t0,s5,t3
bfc02464:	39080001 	xori	t0,t0,0x1
bfc02468:	15000003 	bnez	t0,bfc02478 <__kernel_rem_pio2f+0xc24>
bfc0246c:	00000000 	nop
bfc02470:	0bf00921 	j	bfc02484 <__kernel_rem_pio2f+0xc30>
bfc02474:	00000000 	nop
bfc02478:	02436023 	subu	t4,s2,v1
bfc0247c:	018b402a 	slt	t0,t4,t3
bfc02480:	39080001 	xori	t0,t0,0x1
bfc02484:	1500ffe5 	bnez	t0,bfc0241c <__kernel_rem_pio2f+0xbc8>
bfc02488:	00000000 	nop
bfc0248c:	27ad0898 	addiu	t5,sp,2200
bfc02490:	02437023 	subu	t6,s2,v1
bfc02494:	240f0004 	li	t7,4
bfc02498:	01cf0018 	mult	t6,t7
bfc0249c:	0000c012 	mflo	t8
bfc024a0:	01b8c821 	addu	t9,t5,t8
bfc024a4:	e7200000 	swc1	$f0,0(t9)
bfc024a8:	2404ffff 	li	a0,-1
bfc024ac:	00641821 	addu	v1,v1,a0
bfc024b0:	00002821 	move	a1,zero
bfc024b4:	0065302a 	slt	a2,v1,a1
bfc024b8:	4bf0092f 	cqip	bfc024bc <__kernel_rem_pio2f+0xc68>
bfc024bc:	53f0092f 	pslice_entry	bfc024bc <__kernel_rem_pio2f+0xc68>
bfc024c0:	2404ffff 	li	a0,-1
bfc024c4:	00641821 	addu	v1,v1,a0
bfc024c8:	00002821 	move	a1,zero
bfc024cc:	0065302a 	slt	a2,v1,a1
bfc024d0:	57f0092f 	pslice_exit	bfc024bc <__kernel_rem_pio2f+0xc68>
bfc024d4:	10c0ffc2 	beqz	a2,bfc023e0 <__kernel_rem_pio2f+0xb8c>
bfc024d8:	00000000 	nop
bfc024dc:	0bf0093a 	j	bfc024e8 <__kernel_rem_pio2f+0xc94>
bfc024e0:	00000000 	nop
bfc024e4:	02401821 	move	v1,s2
bfc024e8:	4bf0093b 	cqip	bfc024ec <__kernel_rem_pio2f+0xc98>
bfc024ec:	53f0093b 	pslice_entry	bfc024ec <__kernel_rem_pio2f+0xc98>
bfc024f0:	57f0093b 	pslice_exit	bfc024ec <__kernel_rem_pio2f+0xc98>
bfc024f4:	8fa909cc 	lw	t1,2508(sp)
bfc024f8:	00003821 	move	a3,zero
bfc024fc:	0127102a 	slt	v0,t1,a3
bfc02500:	14400150 	bnez	v0,bfc02a44 <__kernel_rem_pio2f+0x11f0>
bfc02504:	00000000 	nop
bfc02508:	24030003 	li	v1,3
bfc0250c:	0069402a 	slt	t0,v1,t1
bfc02510:	1500014c 	bnez	t0,bfc02a44 <__kernel_rem_pio2f+0x11f0>
bfc02514:	00000000 	nop
bfc02518:	00005021 	move	t2,zero
bfc0251c:	012a5026 	xor	t2,t1,t2
bfc02520:	2d4a0001 	sltiu	t2,t2,1
bfc02524:	15400012 	bnez	t2,bfc02570 <__kernel_rem_pio2f+0xd1c>
bfc02528:	00000000 	nop
bfc0252c:	240b0001 	li	t3,1
bfc02530:	012b6026 	xor	t4,t1,t3
bfc02534:	2d8c0001 	sltiu	t4,t4,1
bfc02538:	15800038 	bnez	t4,bfc0261c <__kernel_rem_pio2f+0xdc8>
bfc0253c:	00000000 	nop
bfc02540:	240d0002 	li	t5,2
bfc02544:	012d7026 	xor	t6,t1,t5
bfc02548:	2dce0001 	sltiu	t6,t6,1
bfc0254c:	15c00033 	bnez	t6,bfc0261c <__kernel_rem_pio2f+0xdc8>
bfc02550:	00000000 	nop
bfc02554:	240f0003 	li	t7,3
bfc02558:	012fc026 	xor	t8,t1,t7
bfc0255c:	2f180001 	sltiu	t8,t8,1
bfc02560:	17000084 	bnez	t8,bfc02774 <__kernel_rem_pio2f+0xf20>
bfc02564:	00000000 	nop
bfc02568:	0bf00a91 	j	bfc02a44 <__kernel_rem_pio2f+0x11f0>
bfc0256c:	00000000 	nop
bfc02570:	24010000 	li	at,0
bfc02574:	44810000 	mtc1	at,$f0
bfc02578:	00002021 	move	a0,zero
bfc0257c:	0244282a 	slt	a1,s2,a0
bfc02580:	38a50001 	xori	a1,a1,0x1
bfc02584:	10a00019 	beqz	a1,bfc025ec <__kernel_rem_pio2f+0xd98>
bfc02588:	00000000 	nop
bfc0258c:	02401821 	move	v1,s2
bfc02590:	b3f00971 	spawn	bfc025c4 <__kernel_rem_pio2f+0xd70>
bfc02594:	27a60898 	addiu	a2,sp,2200
bfc02598:	24070004 	li	a3,4
bfc0259c:	00670018 	mult	v1,a3
bfc025a0:	00001012 	mflo	v0
bfc025a4:	00c24021 	addu	t0,a2,v0
bfc025a8:	c5040000 	lwc1	$f4,0(t0)
bfc025ac:	46040000 	add.s	$f0,$f0,$f4
bfc025b0:	2408ffff 	li	t0,-1
bfc025b4:	00681821 	addu	v1,v1,t0
bfc025b8:	00004821 	move	t1,zero
bfc025bc:	0069502a 	slt	t2,v1,t1
bfc025c0:	4bf00971 	cqip	bfc025c4 <__kernel_rem_pio2f+0xd70>
bfc025c4:	53f00971 	pslice_entry	bfc025c4 <__kernel_rem_pio2f+0xd70>
bfc025c8:	2408ffff 	li	t0,-1
bfc025cc:	00681821 	addu	v1,v1,t0
bfc025d0:	00004821 	move	t1,zero
bfc025d4:	0069502a 	slt	t2,v1,t1
bfc025d8:	57f00971 	pslice_exit	bfc025c4 <__kernel_rem_pio2f+0xd70>
bfc025dc:	1140ffec 	beqz	t2,bfc02590 <__kernel_rem_pio2f+0xd3c>
bfc025e0:	00000000 	nop
bfc025e4:	0bf0097c 	j	bfc025f0 <__kernel_rem_pio2f+0xd9c>
bfc025e8:	00000000 	nop
bfc025ec:	02401821 	move	v1,s2
bfc025f0:	00005821 	move	t3,zero
bfc025f4:	022b6026 	xor	t4,s1,t3
bfc025f8:	2d8c0001 	sltiu	t4,t4,1
bfc025fc:	11800003 	beqz	t4,bfc0260c <__kernel_rem_pio2f+0xdb8>
bfc02600:	00000000 	nop
bfc02604:	0bf00984 	j	bfc02610 <__kernel_rem_pio2f+0xdbc>
bfc02608:	00000000 	nop
bfc0260c:	46000007 	neg.s	$f0,$f0
bfc02610:	e6c00000 	swc1	$f0,0(s6)
bfc02614:	0bf00a91 	j	bfc02a44 <__kernel_rem_pio2f+0x11f0>
bfc02618:	00000000 	nop
bfc0261c:	24010000 	li	at,0
bfc02620:	44810000 	mtc1	at,$f0
bfc02624:	00005021 	move	t2,zero
bfc02628:	024a582a 	slt	t3,s2,t2
bfc0262c:	396b0001 	xori	t3,t3,0x1
bfc02630:	11600019 	beqz	t3,bfc02698 <__kernel_rem_pio2f+0xe44>
bfc02634:	00000000 	nop
bfc02638:	02401821 	move	v1,s2
bfc0263c:	b3f0099c 	spawn	bfc02670 <__kernel_rem_pio2f+0xe1c>
bfc02640:	27ac0898 	addiu	t4,sp,2200
bfc02644:	240d0004 	li	t5,4
bfc02648:	006d0018 	mult	v1,t5
bfc0264c:	00007012 	mflo	t6
bfc02650:	018e7821 	addu	t7,t4,t6
bfc02654:	c5ee0000 	lwc1	$f14,0(t7)
bfc02658:	460e0000 	add.s	$f0,$f0,$f14
bfc0265c:	2418ffff 	li	t8,-1
bfc02660:	00781821 	addu	v1,v1,t8
bfc02664:	0000c821 	move	t9,zero
bfc02668:	0079202a 	slt	a0,v1,t9
bfc0266c:	4bf0099c 	cqip	bfc02670 <__kernel_rem_pio2f+0xe1c>
bfc02670:	53f0099c 	pslice_entry	bfc02670 <__kernel_rem_pio2f+0xe1c>
bfc02674:	2418ffff 	li	t8,-1
bfc02678:	00781821 	addu	v1,v1,t8
bfc0267c:	0000c821 	move	t9,zero
bfc02680:	0079202a 	slt	a0,v1,t9
bfc02684:	57f0099c 	pslice_exit	bfc02670 <__kernel_rem_pio2f+0xe1c>
bfc02688:	1080ffec 	beqz	a0,bfc0263c <__kernel_rem_pio2f+0xde8>
bfc0268c:	00000000 	nop
bfc02690:	0bf009a7 	j	bfc0269c <__kernel_rem_pio2f+0xe48>
bfc02694:	00000000 	nop
bfc02698:	02401821 	move	v1,s2
bfc0269c:	00002821 	move	a1,zero
bfc026a0:	02253026 	xor	a2,s1,a1
bfc026a4:	2cc60001 	sltiu	a2,a2,1
bfc026a8:	10c00004 	beqz	a2,bfc026bc <__kernel_rem_pio2f+0xe68>
bfc026ac:	00000000 	nop
bfc026b0:	46000106 	mov.s	$f4,$f0
bfc026b4:	0bf009b0 	j	bfc026c0 <__kernel_rem_pio2f+0xe6c>
bfc026b8:	00000000 	nop
bfc026bc:	46000107 	neg.s	$f4,$f0
bfc026c0:	e6c40000 	swc1	$f4,0(s6)
bfc026c4:	27a70898 	addiu	a3,sp,2200
bfc026c8:	c4e20000 	lwc1	$f2,0(a3)
bfc026cc:	46001001 	sub.s	$f0,$f2,$f0
bfc026d0:	24020001 	li	v0,1
bfc026d4:	0242182a 	slt	v1,s2,v0
bfc026d8:	38630001 	xori	v1,v1,0x1
bfc026dc:	10600017 	beqz	v1,bfc0273c <__kernel_rem_pio2f+0xee8>
bfc026e0:	00000000 	nop
bfc026e4:	24030001 	li	v1,1
bfc026e8:	b3f009c6 	spawn	bfc02718 <__kernel_rem_pio2f+0xec4>
bfc026ec:	27a80898 	addiu	t0,sp,2200
bfc026f0:	24090004 	li	t1,4
bfc026f4:	00690018 	mult	v1,t1
bfc026f8:	00005012 	mflo	t2
bfc026fc:	010a5821 	addu	t3,t0,t2
bfc02700:	c5620000 	lwc1	$f2,0(t3)
bfc02704:	46020000 	add.s	$f0,$f0,$f2
bfc02708:	240c0001 	li	t4,1
bfc0270c:	006c1821 	addu	v1,v1,t4
bfc02710:	0243682a 	slt	t5,s2,v1
bfc02714:	4bf009c6 	cqip	bfc02718 <__kernel_rem_pio2f+0xec4>
bfc02718:	53f009c6 	pslice_entry	bfc02718 <__kernel_rem_pio2f+0xec4>
bfc0271c:	240c0001 	li	t4,1
bfc02720:	006c1821 	addu	v1,v1,t4
bfc02724:	0243682a 	slt	t5,s2,v1
bfc02728:	57f009c6 	pslice_exit	bfc02718 <__kernel_rem_pio2f+0xec4>
bfc0272c:	11a0ffee 	beqz	t5,bfc026e8 <__kernel_rem_pio2f+0xe94>
bfc02730:	00000000 	nop
bfc02734:	0bf009d0 	j	bfc02740 <__kernel_rem_pio2f+0xeec>
bfc02738:	00000000 	nop
bfc0273c:	24030001 	li	v1,1
bfc02740:	00007021 	move	t6,zero
bfc02744:	022e7826 	xor	t7,s1,t6
bfc02748:	2def0001 	sltiu	t7,t7,1
bfc0274c:	11e00003 	beqz	t7,bfc0275c <__kernel_rem_pio2f+0xf08>
bfc02750:	00000000 	nop
bfc02754:	0bf009d8 	j	bfc02760 <__kernel_rem_pio2f+0xf0c>
bfc02758:	00000000 	nop
bfc0275c:	46000007 	neg.s	$f0,$f0
bfc02760:	24180004 	li	t8,4
bfc02764:	02d8c821 	addu	t9,s6,t8
bfc02768:	e7200000 	swc1	$f0,0(t9)
bfc0276c:	0bf00a91 	j	bfc02a44 <__kernel_rem_pio2f+0x11f0>
bfc02770:	00000000 	nop
bfc02774:	0000c821 	move	t9,zero
bfc02778:	0332202a 	slt	a0,t9,s2
bfc0277c:	10800036 	beqz	a0,bfc02858 <__kernel_rem_pio2f+0x1004>
bfc02780:	00000000 	nop
bfc02784:	02401821 	move	v1,s2
bfc02788:	b3f00a0b 	spawn	bfc0282c <__kernel_rem_pio2f+0xfd8>
bfc0278c:	27a50894 	addiu	a1,sp,2196
bfc02790:	24060004 	li	a2,4
bfc02794:	00660018 	mult	v1,a2
bfc02798:	00003812 	mflo	a3
bfc0279c:	00a71021 	addu	v0,a1,a3
bfc027a0:	c44e0000 	lwc1	$f14,0(v0)
bfc027a4:	27a80898 	addiu	t0,sp,2200
bfc027a8:	24090004 	li	t1,4
bfc027ac:	00690018 	mult	v1,t1
bfc027b0:	00004812 	mflo	t1
bfc027b4:	01095021 	addu	t2,t0,t1
bfc027b8:	c5400000 	lwc1	$f0,0(t2)
bfc027bc:	46007000 	add.s	$f0,$f14,$f0
bfc027c0:	27ab0898 	addiu	t3,sp,2200
bfc027c4:	240c0004 	li	t4,4
bfc027c8:	006c0018 	mult	v1,t4
bfc027cc:	00006812 	mflo	t5
bfc027d0:	016d7021 	addu	t6,t3,t5
bfc027d4:	c5c20000 	lwc1	$f2,0(t6)
bfc027d8:	27af0894 	addiu	t7,sp,2196
bfc027dc:	24180004 	li	t8,4
bfc027e0:	00780018 	mult	v1,t8
bfc027e4:	0000c812 	mflo	t9
bfc027e8:	01f92021 	addu	a0,t7,t9
bfc027ec:	c4840000 	lwc1	$f4,0(a0)
bfc027f0:	46002181 	sub.s	$f6,$f4,$f0
bfc027f4:	46061200 	add.s	$f8,$f2,$f6
bfc027f8:	e5c80000 	swc1	$f8,0(t6)
bfc027fc:	27a50894 	addiu	a1,sp,2196
bfc02800:	24060004 	li	a2,4
bfc02804:	00660018 	mult	v1,a2
bfc02808:	00003812 	mflo	a3
bfc0280c:	00a71021 	addu	v0,a1,a3
bfc02810:	e4400000 	swc1	$f0,0(v0)
bfc02814:	2408ffff 	li	t0,-1
bfc02818:	00681821 	addu	v1,v1,t0
bfc0281c:	00004021 	move	t0,zero
bfc02820:	0103482a 	slt	t1,t0,v1
bfc02824:	39290001 	xori	t1,t1,0x1
bfc02828:	4bf00a0b 	cqip	bfc0282c <__kernel_rem_pio2f+0xfd8>
bfc0282c:	53f00a0b 	pslice_entry	bfc0282c <__kernel_rem_pio2f+0xfd8>
bfc02830:	2408ffff 	li	t0,-1
bfc02834:	00681821 	addu	v1,v1,t0
bfc02838:	00004021 	move	t0,zero
bfc0283c:	0103482a 	slt	t1,t0,v1
bfc02840:	39290001 	xori	t1,t1,0x1
bfc02844:	57f00a0b 	pslice_exit	bfc0282c <__kernel_rem_pio2f+0xfd8>
bfc02848:	1120ffcf 	beqz	t1,bfc02788 <__kernel_rem_pio2f+0xf34>
bfc0284c:	00000000 	nop
bfc02850:	0bf00a17 	j	bfc0285c <__kernel_rem_pio2f+0x1008>
bfc02854:	00000000 	nop
bfc02858:	02401821 	move	v1,s2
bfc0285c:	240a0001 	li	t2,1
bfc02860:	0152582a 	slt	t3,t2,s2
bfc02864:	11600036 	beqz	t3,bfc02940 <__kernel_rem_pio2f+0x10ec>
bfc02868:	00000000 	nop
bfc0286c:	02401821 	move	v1,s2
bfc02870:	b3f00a45 	spawn	bfc02914 <__kernel_rem_pio2f+0x10c0>
bfc02874:	27ac0894 	addiu	t4,sp,2196
bfc02878:	240d0004 	li	t5,4
bfc0287c:	006d0018 	mult	v1,t5
bfc02880:	00007012 	mflo	t6
bfc02884:	018e7821 	addu	t7,t4,t6
bfc02888:	c5ea0000 	lwc1	$f10,0(t7)
bfc0288c:	27b80898 	addiu	t8,sp,2200
bfc02890:	24190004 	li	t9,4
bfc02894:	00790018 	mult	v1,t9
bfc02898:	00002012 	mflo	a0
bfc0289c:	03042821 	addu	a1,t8,a0
bfc028a0:	c4b00000 	lwc1	$f16,0(a1)
bfc028a4:	46105000 	add.s	$f0,$f10,$f16
bfc028a8:	27a60898 	addiu	a2,sp,2200
bfc028ac:	24070004 	li	a3,4
bfc028b0:	00670018 	mult	v1,a3
bfc028b4:	00001012 	mflo	v0
bfc028b8:	00c24021 	addu	t0,a2,v0
bfc028bc:	c5120000 	lwc1	$f18,0(t0)
bfc028c0:	27a90894 	addiu	t1,sp,2196
bfc028c4:	240a0004 	li	t2,4
bfc028c8:	006a0018 	mult	v1,t2
bfc028cc:	00005012 	mflo	t2
bfc028d0:	012a5821 	addu	t3,t1,t2
bfc028d4:	c56c0000 	lwc1	$f12,0(t3)
bfc028d8:	46006381 	sub.s	$f14,$f12,$f0
bfc028dc:	460e9080 	add.s	$f2,$f18,$f14
bfc028e0:	e5020000 	swc1	$f2,0(t0)
bfc028e4:	27ac0894 	addiu	t4,sp,2196
bfc028e8:	240d0004 	li	t5,4
bfc028ec:	006d0018 	mult	v1,t5
bfc028f0:	00007012 	mflo	t6
bfc028f4:	018e7821 	addu	t7,t4,t6
bfc028f8:	e5e00000 	swc1	$f0,0(t7)
bfc028fc:	2418ffff 	li	t8,-1
bfc02900:	00781821 	addu	v1,v1,t8
bfc02904:	24190001 	li	t9,1
bfc02908:	0323202a 	slt	a0,t9,v1
bfc0290c:	38840001 	xori	a0,a0,0x1
bfc02910:	4bf00a45 	cqip	bfc02914 <__kernel_rem_pio2f+0x10c0>
bfc02914:	53f00a45 	pslice_entry	bfc02914 <__kernel_rem_pio2f+0x10c0>
bfc02918:	2418ffff 	li	t8,-1
bfc0291c:	00781821 	addu	v1,v1,t8
bfc02920:	24190001 	li	t9,1
bfc02924:	0323202a 	slt	a0,t9,v1
bfc02928:	38840001 	xori	a0,a0,0x1
bfc0292c:	57f00a45 	pslice_exit	bfc02914 <__kernel_rem_pio2f+0x10c0>
bfc02930:	1080ffcf 	beqz	a0,bfc02870 <__kernel_rem_pio2f+0x101c>
bfc02934:	00000000 	nop
bfc02938:	0bf00a51 	j	bfc02944 <__kernel_rem_pio2f+0x10f0>
bfc0293c:	00000000 	nop
bfc02940:	02401821 	move	v1,s2
bfc02944:	24010000 	li	at,0
bfc02948:	44810000 	mtc1	at,$f0
bfc0294c:	24050002 	li	a1,2
bfc02950:	0245302a 	slt	a2,s2,a1
bfc02954:	38c60001 	xori	a2,a2,0x1
bfc02958:	10c00019 	beqz	a2,bfc029c0 <__kernel_rem_pio2f+0x116c>
bfc0295c:	00000000 	nop
bfc02960:	02401821 	move	v1,s2
bfc02964:	b3f00a66 	spawn	bfc02998 <__kernel_rem_pio2f+0x1144>
bfc02968:	27a70898 	addiu	a3,sp,2200
bfc0296c:	24020004 	li	v0,4
bfc02970:	00620018 	mult	v1,v0
bfc02974:	00004012 	mflo	t0
bfc02978:	00e84021 	addu	t0,a3,t0
bfc0297c:	c5020000 	lwc1	$f2,0(t0)
bfc02980:	46020000 	add.s	$f0,$f0,$f2
bfc02984:	2409ffff 	li	t1,-1
bfc02988:	00691821 	addu	v1,v1,t1
bfc0298c:	240a0002 	li	t2,2
bfc02990:	006a582a 	slt	t3,v1,t2
bfc02994:	4bf00a66 	cqip	bfc02998 <__kernel_rem_pio2f+0x1144>
bfc02998:	53f00a66 	pslice_entry	bfc02998 <__kernel_rem_pio2f+0x1144>
bfc0299c:	2409ffff 	li	t1,-1
bfc029a0:	00691821 	addu	v1,v1,t1
bfc029a4:	240a0002 	li	t2,2
bfc029a8:	006a582a 	slt	t3,v1,t2
bfc029ac:	57f00a66 	pslice_exit	bfc02998 <__kernel_rem_pio2f+0x1144>
bfc029b0:	1160ffec 	beqz	t3,bfc02964 <__kernel_rem_pio2f+0x1110>
bfc029b4:	00000000 	nop
bfc029b8:	0bf00a71 	j	bfc029c4 <__kernel_rem_pio2f+0x1170>
bfc029bc:	00000000 	nop
bfc029c0:	02401821 	move	v1,s2
bfc029c4:	00006021 	move	t4,zero
bfc029c8:	022c6826 	xor	t5,s1,t4
bfc029cc:	2dad0001 	sltiu	t5,t5,1
bfc029d0:	11a0000e 	beqz	t5,bfc02a0c <__kernel_rem_pio2f+0x11b8>
bfc029d4:	00000000 	nop
bfc029d8:	27ae0898 	addiu	t6,sp,2200
bfc029dc:	c5c40000 	lwc1	$f4,0(t6)
bfc029e0:	e6c40000 	swc1	$f4,0(s6)
bfc029e4:	240f0004 	li	t7,4
bfc029e8:	02cfc021 	addu	t8,s6,t7
bfc029ec:	27b9089c 	addiu	t9,sp,2204
bfc029f0:	c7260000 	lwc1	$f6,0(t9)
bfc029f4:	e7060000 	swc1	$f6,0(t8)
bfc029f8:	24040008 	li	a0,8
bfc029fc:	02c42821 	addu	a1,s6,a0
bfc02a00:	e4a00000 	swc1	$f0,0(a1)
bfc02a04:	0bf00a91 	j	bfc02a44 <__kernel_rem_pio2f+0x11f0>
bfc02a08:	00000000 	nop
bfc02a0c:	27a60898 	addiu	a2,sp,2200
bfc02a10:	c4c80000 	lwc1	$f8,0(a2)
bfc02a14:	46004287 	neg.s	$f10,$f8
bfc02a18:	e6ca0000 	swc1	$f10,0(s6)
bfc02a1c:	24070004 	li	a3,4
bfc02a20:	02c71021 	addu	v0,s6,a3
bfc02a24:	27a3089c 	addiu	v1,sp,2204
bfc02a28:	c4700000 	lwc1	$f16,0(v1)
bfc02a2c:	46008487 	neg.s	$f18,$f16
bfc02a30:	e4520000 	swc1	$f18,0(v0)
bfc02a34:	24080008 	li	t0,8
bfc02a38:	02c84821 	addu	t1,s6,t0
bfc02a3c:	46000307 	neg.s	$f12,$f0
bfc02a40:	e52c0000 	swc1	$f12,0(t1)
bfc02a44:	240d0007 	li	t5,7
bfc02a48:	020d1024 	and	v0,s0,t5
bfc02a4c:	8fbf0004 	lw	ra,4(sp)
bfc02a50:	8fb00008 	lw	s0,8(sp)
bfc02a54:	8fb1000c 	lw	s1,12(sp)
bfc02a58:	8fb20010 	lw	s2,16(sp)
bfc02a5c:	8fb30014 	lw	s3,20(sp)
bfc02a60:	8fb40018 	lw	s4,24(sp)
bfc02a64:	8fb5001c 	lw	s5,28(sp)
bfc02a68:	8fb60020 	lw	s6,32(sp)
bfc02a6c:	8fb70024 	lw	s7,36(sp)
bfc02a70:	c7b40028 	lwc1	$f20,40(sp)
bfc02a74:	c7b5002c 	lwc1	$f21,44(sp)
bfc02a78:	c7b60030 	lwc1	$f22,48(sp)
bfc02a7c:	c7b70034 	lwc1	$f23,52(sp)
bfc02a80:	8fbd0000 	lw	sp,0(sp)
bfc02a84:	03e00008 	jr	ra
bfc02a88:	00000000 	nop

bfc02a8c <__copysignf>:
bfc02a8c:	27bdffb0 	addiu	sp,sp,-80
bfc02a90:	0000003f 	ust
bfc02a94:	afbe0000 	sw	s8,0(sp)
bfc02a98:	27a9003c 	addiu	t1,sp,60
bfc02a9c:	e52c0000 	swc1	$f12,0(t1)
bfc02aa0:	27aa003c 	addiu	t2,sp,60
bfc02aa4:	8d4b0000 	lw	t3,0(t2)
bfc02aa8:	27ac0038 	addiu	t4,sp,56
bfc02aac:	e58e0000 	swc1	$f14,0(t4)
bfc02ab0:	27ad0038 	addiu	t5,sp,56
bfc02ab4:	8dae0000 	lw	t6,0(t5)
bfc02ab8:	27af0034 	addiu	t7,sp,52
bfc02abc:	3c187fff 	lui	t8,0x7fff
bfc02ac0:	3718ffff 	ori	t8,t8,0xffff
bfc02ac4:	0178c824 	and	t9,t3,t8
bfc02ac8:	3c048000 	lui	a0,0x8000
bfc02acc:	01c42824 	and	a1,t6,a0
bfc02ad0:	03253025 	or	a2,t9,a1
bfc02ad4:	ade60000 	sw	a2,0(t7)
bfc02ad8:	27a70034 	addiu	a3,sp,52
bfc02adc:	c4ec0000 	lwc1	$f12,0(a3)
bfc02ae0:	46006006 	mov.s	$f0,$f12
bfc02ae4:	8fbd0000 	lw	sp,0(sp)
bfc02ae8:	03e00008 	jr	ra
bfc02aec:	00000000 	nop

bfc02af0 <__scalbnf>:
bfc02af0:	27bdfe78 	addiu	sp,sp,-392
bfc02af4:	0000003f 	ust
bfc02af8:	afbe0000 	sw	s8,0(sp)
bfc02afc:	afbf0004 	sw	ra,4(sp)
bfc02b00:	e7b40008 	swc1	$f20,8(sp)
bfc02b04:	e7b5000c 	swc1	$f21,12(sp)
bfc02b08:	46006386 	mov.s	$f14,$f12
bfc02b0c:	27af016c 	addiu	t7,sp,364
bfc02b10:	e5ee0000 	swc1	$f14,0(t7)
bfc02b14:	27b8016c 	addiu	t8,sp,364
bfc02b18:	8f090000 	lw	t1,0(t8)
bfc02b1c:	3c197f80 	lui	t9,0x7f80
bfc02b20:	01394024 	and	t0,t1,t9
bfc02b24:	24040017 	li	a0,23
bfc02b28:	00881807 	srav	v1,t0,a0
bfc02b2c:	00002821 	move	a1,zero
bfc02b30:	00653826 	xor	a3,v1,a1
bfc02b34:	2ce70001 	sltiu	a3,a3,1
bfc02b38:	10e0001d 	beqz	a3,bfc02bb0 <__scalbnf+0xc0>
bfc02b3c:	00000000 	nop
bfc02b40:	3c077fff 	lui	a3,0x7fff
bfc02b44:	34e7ffff 	ori	a3,a3,0xffff
bfc02b48:	01275024 	and	t2,t1,a3
bfc02b4c:	00001021 	move	v0,zero
bfc02b50:	01421826 	xor	v1,t2,v0
bfc02b54:	2c630001 	sltiu	v1,v1,1
bfc02b58:	10600008 	beqz	v1,bfc02b7c <__scalbnf+0x8c>
bfc02b5c:	00000000 	nop
bfc02b60:	46007006 	mov.s	$f0,$f14
bfc02b64:	8fbf0004 	lw	ra,4(sp)
bfc02b68:	c7b40008 	lwc1	$f20,8(sp)
bfc02b6c:	c7b5000c 	lwc1	$f21,12(sp)
bfc02b70:	8fbd0000 	lw	sp,0(sp)
bfc02b74:	03e00008 	jr	ra
bfc02b78:	00000000 	nop
bfc02b7c:	27880468 	addiu	t0,gp,1128
bfc02b80:	c50c0000 	lwc1	$f12,0(t0)
bfc02b84:	460c7382 	mul.s	$f14,$f14,$f12
bfc02b88:	27a90168 	addiu	t1,sp,360
bfc02b8c:	e52e0000 	swc1	$f14,0(t1)
bfc02b90:	27aa0168 	addiu	t2,sp,360
bfc02b94:	8d490000 	lw	t1,0(t2)
bfc02b98:	3c0b7f80 	lui	t3,0x7f80
bfc02b9c:	012b5824 	and	t3,t1,t3
bfc02ba0:	240c0017 	li	t4,23
bfc02ba4:	018b6807 	srav	t5,t3,t4
bfc02ba8:	240e0019 	li	t6,25
bfc02bac:	01ae1823 	subu	v1,t5,t6
bfc02bb0:	240f00ff 	li	t7,255
bfc02bb4:	006fc026 	xor	t8,v1,t7
bfc02bb8:	2f180001 	sltiu	t8,t8,1
bfc02bbc:	13000008 	beqz	t8,bfc02be0 <__scalbnf+0xf0>
bfc02bc0:	00000000 	nop
bfc02bc4:	460e7000 	add.s	$f0,$f14,$f14
bfc02bc8:	8fbf0004 	lw	ra,4(sp)
bfc02bcc:	c7b40008 	lwc1	$f20,8(sp)
bfc02bd0:	c7b5000c 	lwc1	$f21,12(sp)
bfc02bd4:	8fbd0000 	lw	sp,0(sp)
bfc02bd8:	03e00008 	jr	ra
bfc02bdc:	00000000 	nop
bfc02be0:	00661821 	addu	v1,v1,a2
bfc02be4:	3419c350 	li	t9,0xc350
bfc02be8:	0326602a 	slt	t4,t9,a2
bfc02bec:	11800003 	beqz	t4,bfc02bfc <__scalbnf+0x10c>
bfc02bf0:	00000000 	nop
bfc02bf4:	0bf00b01 	j	bfc02c04 <__scalbnf+0x114>
bfc02bf8:	00000000 	nop
bfc02bfc:	240400fe 	li	a0,254
bfc02c00:	0083602a 	slt	t4,a0,v1
bfc02c04:	11800012 	beqz	t4,bfc02c50 <__scalbnf+0x160>
bfc02c08:	00000000 	nop
bfc02c0c:	27850470 	addiu	a1,gp,1136
bfc02c10:	c4b40000 	lwc1	$f20,0(a1)
bfc02c14:	3c08bfc0 	lui	t0,0xbfc0
bfc02c18:	25082a8c 	addiu	t0,t0,10892
bfc02c1c:	27860470 	addiu	a2,gp,1136
bfc02c20:	c4cc0000 	lwc1	$f12,0(a2)
bfc02c24:	03a0f021 	move	s8,sp
bfc02c28:	03a0003e 	fst	sp
bfc02c2c:	03e04009 	jalr	t0,ra
bfc02c30:	00000000 	nop
bfc02c34:	4600a002 	mul.s	$f0,$f20,$f0
bfc02c38:	8fbf0004 	lw	ra,4(sp)
bfc02c3c:	c7b40008 	lwc1	$f20,8(sp)
bfc02c40:	c7b5000c 	lwc1	$f21,12(sp)
bfc02c44:	8fbd0000 	lw	sp,0(sp)
bfc02c48:	03e00008 	jr	ra
bfc02c4c:	00000000 	nop
bfc02c50:	3c07ffff 	lui	a3,0xffff
bfc02c54:	34e73cb0 	ori	a3,a3,0x3cb0
bfc02c58:	00c7102a 	slt	v0,a2,a3
bfc02c5c:	10400012 	beqz	v0,bfc02ca8 <__scalbnf+0x1b8>
bfc02c60:	00000000 	nop
bfc02c64:	27830474 	addiu	v1,gp,1140
bfc02c68:	c4740000 	lwc1	$f20,0(v1)
bfc02c6c:	3c08bfc0 	lui	t0,0xbfc0
bfc02c70:	25082a8c 	addiu	t0,t0,10892
bfc02c74:	27890474 	addiu	t1,gp,1140
bfc02c78:	c52c0000 	lwc1	$f12,0(t1)
bfc02c7c:	03a0f021 	move	s8,sp
bfc02c80:	03a0003e 	fst	sp
bfc02c84:	03e04009 	jalr	t0,ra
bfc02c88:	00000000 	nop
bfc02c8c:	4600a002 	mul.s	$f0,$f20,$f0
bfc02c90:	8fbf0004 	lw	ra,4(sp)
bfc02c94:	c7b40008 	lwc1	$f20,8(sp)
bfc02c98:	c7b5000c 	lwc1	$f21,12(sp)
bfc02c9c:	8fbd0000 	lw	sp,0(sp)
bfc02ca0:	03e00008 	jr	ra
bfc02ca4:	00000000 	nop
bfc02ca8:	00005021 	move	t2,zero
bfc02cac:	0143502a 	slt	t2,t2,v1
bfc02cb0:	11400012 	beqz	t2,bfc02cfc <__scalbnf+0x20c>
bfc02cb4:	00000000 	nop
bfc02cb8:	27ab0164 	addiu	t3,sp,356
bfc02cbc:	3c0c807f 	lui	t4,0x807f
bfc02cc0:	358cffff 	ori	t4,t4,0xffff
bfc02cc4:	012c7024 	and	t6,t1,t4
bfc02cc8:	240f0017 	li	t7,23
bfc02ccc:	01e36804 	sllv	t5,v1,t7
bfc02cd0:	01cd7825 	or	t7,t6,t5
bfc02cd4:	ad6f0000 	sw	t7,0(t3)
bfc02cd8:	27b80164 	addiu	t8,sp,356
bfc02cdc:	c70e0000 	lwc1	$f14,0(t8)
bfc02ce0:	46007006 	mov.s	$f0,$f14
bfc02ce4:	8fbf0004 	lw	ra,4(sp)
bfc02ce8:	c7b40008 	lwc1	$f20,8(sp)
bfc02cec:	c7b5000c 	lwc1	$f21,12(sp)
bfc02cf0:	8fbd0000 	lw	sp,0(sp)
bfc02cf4:	03e00008 	jr	ra
bfc02cf8:	00000000 	nop
bfc02cfc:	2419ffe7 	li	t9,-25
bfc02d00:	0323202a 	slt	a0,t9,v1
bfc02d04:	38840001 	xori	a0,a0,0x1
bfc02d08:	10800012 	beqz	a0,bfc02d54 <__scalbnf+0x264>
bfc02d0c:	00000000 	nop
bfc02d10:	27850474 	addiu	a1,gp,1140
bfc02d14:	c4b40000 	lwc1	$f20,0(a1)
bfc02d18:	3c08bfc0 	lui	t0,0xbfc0
bfc02d1c:	25082a8c 	addiu	t0,t0,10892
bfc02d20:	27860474 	addiu	a2,gp,1140
bfc02d24:	c4cc0000 	lwc1	$f12,0(a2)
bfc02d28:	03a0f021 	move	s8,sp
bfc02d2c:	03a0003e 	fst	sp
bfc02d30:	03e04009 	jalr	t0,ra
bfc02d34:	00000000 	nop
bfc02d38:	4600a002 	mul.s	$f0,$f20,$f0
bfc02d3c:	8fbf0004 	lw	ra,4(sp)
bfc02d40:	c7b40008 	lwc1	$f20,8(sp)
bfc02d44:	c7b5000c 	lwc1	$f21,12(sp)
bfc02d48:	8fbd0000 	lw	sp,0(sp)
bfc02d4c:	03e00008 	jr	ra
bfc02d50:	00000000 	nop
bfc02d54:	24070019 	li	a3,25
bfc02d58:	00671821 	addu	v1,v1,a3
bfc02d5c:	27a80160 	addiu	t0,sp,352
bfc02d60:	3c0a807f 	lui	t2,0x807f
bfc02d64:	354affff 	ori	t2,t2,0xffff
bfc02d68:	012a4824 	and	t1,t1,t2
bfc02d6c:	240a0017 	li	t2,23
bfc02d70:	01437004 	sllv	t6,v1,t2
bfc02d74:	012e5825 	or	t3,t1,t6
bfc02d78:	ad0b0000 	sw	t3,0(t0)
bfc02d7c:	27ac0160 	addiu	t4,sp,352
bfc02d80:	c58e0000 	lwc1	$f14,0(t4)
bfc02d84:	278d046c 	addiu	t5,gp,1132
bfc02d88:	c5a00000 	lwc1	$f0,0(t5)
bfc02d8c:	46007002 	mul.s	$f0,$f14,$f0
bfc02d90:	8fbf0004 	lw	ra,4(sp)
bfc02d94:	c7b40008 	lwc1	$f20,8(sp)
bfc02d98:	c7b5000c 	lwc1	$f21,12(sp)
bfc02d9c:	8fbd0000 	lw	sp,0(sp)
bfc02da0:	03e00008 	jr	ra
bfc02da4:	00000000 	nop

bfc02da8 <__floorf>:
bfc02da8:	27bdff08 	addiu	sp,sp,-248
bfc02dac:	0000003f 	ust
bfc02db0:	afbe0000 	sw	s8,0(sp)
bfc02db4:	46006006 	mov.s	$f0,$f12
bfc02db8:	27a200e4 	addiu	v0,sp,228
bfc02dbc:	e4400000 	swc1	$f0,0(v0)
bfc02dc0:	27a300e4 	addiu	v1,sp,228
bfc02dc4:	8c640000 	lw	a0,0(v1)
bfc02dc8:	24080017 	li	t0,23
bfc02dcc:	0104c807 	srav	t9,a0,t0
bfc02dd0:	240900ff 	li	t1,255
bfc02dd4:	0329c024 	and	t8,t9,t1
bfc02dd8:	240a007f 	li	t2,127
bfc02ddc:	030a3823 	subu	a3,t8,t2
bfc02de0:	240b0017 	li	t3,23
bfc02de4:	00eb602a 	slt	t4,a3,t3
bfc02de8:	11800047 	beqz	t4,bfc02f08 <__floorf+0x160>
bfc02dec:	00000000 	nop
bfc02df0:	00006821 	move	t5,zero
bfc02df4:	00ed702a 	slt	t6,a3,t5
bfc02df8:	11c00020 	beqz	t6,bfc02e7c <__floorf+0xd4>
bfc02dfc:	00000000 	nop
bfc02e00:	24010000 	li	at,0
bfc02e04:	44812000 	mtc1	at,$f4
bfc02e08:	278f0470 	addiu	t7,gp,1136
bfc02e0c:	c5e60000 	lwc1	$f6,0(t7)
bfc02e10:	46003200 	add.s	$f8,$f6,$f0
bfc02e14:	24180001 	li	t8,1
bfc02e18:	4608203c 	c.lt.s	$f4,$f8
bfc02e1c:	45010002 	bc1t	bfc02e28 <__floorf+0x80>
bfc02e20:	00000000 	nop
bfc02e24:	0000c021 	move	t8,zero
bfc02e28:	13000043 	beqz	t8,bfc02f38 <__floorf+0x190>
bfc02e2c:	00000000 	nop
bfc02e30:	0000c821 	move	t9,zero
bfc02e34:	0099282a 	slt	a1,a0,t9
bfc02e38:	38a50001 	xori	a1,a1,0x1
bfc02e3c:	10a00004 	beqz	a1,bfc02e50 <__floorf+0xa8>
bfc02e40:	00000000 	nop
bfc02e44:	00002021 	move	a0,zero
bfc02e48:	0bf00bce 	j	bfc02f38 <__floorf+0x190>
bfc02e4c:	00000000 	nop
bfc02e50:	3c057fff 	lui	a1,0x7fff
bfc02e54:	34a5ffff 	ori	a1,a1,0xffff
bfc02e58:	00852824 	and	a1,a0,a1
bfc02e5c:	00003021 	move	a2,zero
bfc02e60:	00a63826 	xor	a3,a1,a2
bfc02e64:	0007382b 	sltu	a3,zero,a3
bfc02e68:	10e00033 	beqz	a3,bfc02f38 <__floorf+0x190>
bfc02e6c:	00000000 	nop
bfc02e70:	3c04bf80 	lui	a0,0xbf80
bfc02e74:	0bf00bce 	j	bfc02f38 <__floorf+0x190>
bfc02e78:	00000000 	nop
bfc02e7c:	3c02007f 	lui	v0,0x7f
bfc02e80:	3442ffff 	ori	v0,v0,0xffff
bfc02e84:	00e23007 	srav	a2,v0,a3
bfc02e88:	00861824 	and	v1,a0,a2
bfc02e8c:	00004021 	move	t0,zero
bfc02e90:	00684826 	xor	t1,v1,t0
bfc02e94:	2d290001 	sltiu	t1,t1,1
bfc02e98:	11200004 	beqz	t1,bfc02eac <__floorf+0x104>
bfc02e9c:	00000000 	nop
bfc02ea0:	8fbd0000 	lw	sp,0(sp)
bfc02ea4:	03e00008 	jr	ra
bfc02ea8:	00000000 	nop
bfc02eac:	24010000 	li	at,0
bfc02eb0:	44815000 	mtc1	at,$f10
bfc02eb4:	278a0470 	addiu	t2,gp,1136
bfc02eb8:	c5500000 	lwc1	$f16,0(t2)
bfc02ebc:	46008480 	add.s	$f18,$f16,$f0
bfc02ec0:	240b0001 	li	t3,1
bfc02ec4:	4612503c 	c.lt.s	$f10,$f18
bfc02ec8:	45010002 	bc1t	bfc02ed4 <__floorf+0x12c>
bfc02ecc:	00000000 	nop
bfc02ed0:	00005821 	move	t3,zero
bfc02ed4:	11600018 	beqz	t3,bfc02f38 <__floorf+0x190>
bfc02ed8:	00000000 	nop
bfc02edc:	00006021 	move	t4,zero
bfc02ee0:	008c682a 	slt	t5,a0,t4
bfc02ee4:	11a00004 	beqz	t5,bfc02ef8 <__floorf+0x150>
bfc02ee8:	00000000 	nop
bfc02eec:	3c0e0080 	lui	t6,0x80
bfc02ef0:	00ee7807 	srav	t7,t6,a3
bfc02ef4:	008f2021 	addu	a0,a0,t7
bfc02ef8:	00c0c027 	nor	t8,a2,zero
bfc02efc:	00982024 	and	a0,a0,t8
bfc02f00:	0bf00bce 	j	bfc02f38 <__floorf+0x190>
bfc02f04:	00000000 	nop
bfc02f08:	24050080 	li	a1,128
bfc02f0c:	00e53026 	xor	a2,a3,a1
bfc02f10:	2cc60001 	sltiu	a2,a2,1
bfc02f14:	10c00005 	beqz	a2,bfc02f2c <__floorf+0x184>
bfc02f18:	00000000 	nop
bfc02f1c:	46000000 	add.s	$f0,$f0,$f0
bfc02f20:	8fbd0000 	lw	sp,0(sp)
bfc02f24:	03e00008 	jr	ra
bfc02f28:	00000000 	nop
bfc02f2c:	8fbd0000 	lw	sp,0(sp)
bfc02f30:	03e00008 	jr	ra
bfc02f34:	00000000 	nop
bfc02f38:	27b900e0 	addiu	t9,sp,224
bfc02f3c:	af240000 	sw	a0,0(t9)
bfc02f40:	27a400e0 	addiu	a0,sp,224
bfc02f44:	c4800000 	lwc1	$f0,0(a0)
bfc02f48:	8fbd0000 	lw	sp,0(sp)
bfc02f4c:	03e00008 	jr	ra
bfc02f50:	00000000 	nop

bfc02f54 <sin>:
bfc02f54:	27bdfef8 	addiu	sp,sp,-264
bfc02f58:	0000003f 	ust
bfc02f5c:	afbe0000 	sw	s8,0(sp)
bfc02f60:	afbf0004 	sw	ra,4(sp)
bfc02f64:	24010000 	li	at,0
bfc02f68:	44817000 	mtc1	at,$f14
bfc02f6c:	27b800e8 	addiu	t8,sp,232
bfc02f70:	e70c0000 	swc1	$f12,0(t8)
bfc02f74:	27b900e8 	addiu	t9,sp,232
bfc02f78:	8f2e0000 	lw	t6,0(t9)
bfc02f7c:	3c047fff 	lui	a0,0x7fff
bfc02f80:	3484ffff 	ori	a0,a0,0xffff
bfc02f84:	01c47024 	and	t6,t6,a0
bfc02f88:	b3f00bf6 	spawn	bfc02fd8 <sin+0x84>
bfc02f8c:	3c053f49 	lui	a1,0x3f49
bfc02f90:	34a50fd8 	ori	a1,a1,0xfd8
bfc02f94:	00ae302a 	slt	a2,a1,t6
bfc02f98:	38c60001 	xori	a2,a2,0x1
bfc02f9c:	10c0000d 	beqz	a2,bfc02fd4 <sin+0x80>
bfc02fa0:	00000000 	nop
bfc02fa4:	3c08bfc0 	lui	t0,0xbfc0
bfc02fa8:	25080f50 	addiu	t0,t0,3920
bfc02fac:	00003821 	move	a3,zero
bfc02fb0:	03a0f021 	move	s8,sp
bfc02fb4:	03a0003e 	fst	sp
bfc02fb8:	afa7fff4 	sw	a3,-12(sp)
bfc02fbc:	03e04009 	jalr	t0,ra
bfc02fc0:	00000000 	nop
bfc02fc4:	8fbf0004 	lw	ra,4(sp)
bfc02fc8:	8fbd0000 	lw	sp,0(sp)
bfc02fcc:	03e00008 	jr	ra
bfc02fd0:	00000000 	nop
bfc02fd4:	4bf00bf6 	cqip	bfc02fd8 <sin+0x84>
bfc02fd8:	53f00bf6 	pslice_entry	bfc02fd8 <sin+0x84>
bfc02fdc:	57f00bf6 	pslice_exit	bfc02fd8 <sin+0x84>
bfc02fe0:	b3f00c05 	spawn	bfc03014 <sin+0xc0>
bfc02fe4:	3c027f80 	lui	v0,0x7f80
bfc02fe8:	01c2182a 	slt	v1,t6,v0
bfc02fec:	38630001 	xori	v1,v1,0x1
bfc02ff0:	10600007 	beqz	v1,bfc03010 <sin+0xbc>
bfc02ff4:	00000000 	nop
bfc02ff8:	24010000 	li	at,0
bfc02ffc:	44810000 	mtc1	at,$f0
bfc03000:	8fbf0004 	lw	ra,4(sp)
bfc03004:	8fbd0000 	lw	sp,0(sp)
bfc03008:	03e00008 	jr	ra
bfc0300c:	00000000 	nop
bfc03010:	4bf00c05 	cqip	bfc03014 <sin+0xc0>
bfc03014:	53f00c05 	pslice_entry	bfc03014 <sin+0xc0>
bfc03018:	57f00c05 	pslice_exit	bfc03014 <sin+0xc0>
bfc0301c:	b3f00c26 	spawn	bfc03098 <sin+0x144>
bfc03020:	b3f00c39 	spawn	bfc030e4 <sin+0x190>
bfc03024:	b3f00c4a 	spawn	bfc03128 <sin+0x1d4>
bfc03028:	b3f00c5e 	spawn	bfc03178 <sin+0x224>
bfc0302c:	3c08bfc0 	lui	t0,0xbfc0
bfc03030:	25081144 	addiu	t0,t0,4420
bfc03034:	27a600f8 	addiu	a2,sp,248
bfc03038:	03a0f021 	move	s8,sp
bfc0303c:	03a0003e 	fst	sp
bfc03040:	03e04009 	jalr	t0,ra
bfc03044:	00000000 	nop
bfc03048:	24080003 	li	t0,3
bfc0304c:	00487824 	and	t7,v0,t0
bfc03050:	00004821 	move	t1,zero
bfc03054:	01e95026 	xor	t2,t7,t1
bfc03058:	2d4a0001 	sltiu	t2,t2,1
bfc0305c:	1540000d 	bnez	t2,bfc03094 <sin+0x140>
bfc03060:	00000000 	nop
bfc03064:	240b0001 	li	t3,1
bfc03068:	01eb6026 	xor	t4,t7,t3
bfc0306c:	2d8c0001 	sltiu	t4,t4,1
bfc03070:	1580001b 	bnez	t4,bfc030e0 <sin+0x18c>
bfc03074:	00000000 	nop
bfc03078:	240d0002 	li	t5,2
bfc0307c:	01ed7026 	xor	t6,t7,t5
bfc03080:	2dce0001 	sltiu	t6,t6,1
bfc03084:	15c00027 	bnez	t6,bfc03124 <sin+0x1d0>
bfc03088:	00000000 	nop
bfc0308c:	0bf00c5d 	j	bfc03174 <sin+0x220>
bfc03090:	00000000 	nop
bfc03094:	4bf00c26 	cqip	bfc03098 <sin+0x144>
bfc03098:	53f00c26 	pslice_entry	bfc03098 <sin+0x144>
bfc0309c:	57f00c26 	pslice_exit	bfc03098 <sin+0x144>
bfc030a0:	3c08bfc0 	lui	t0,0xbfc0
bfc030a4:	25080f50 	addiu	t0,t0,3920
bfc030a8:	27a200f8 	addiu	v0,sp,248
bfc030ac:	c44c0000 	lwc1	$f12,0(v0)
bfc030b0:	27a300fc 	addiu	v1,sp,252
bfc030b4:	c46e0000 	lwc1	$f14,0(v1)
bfc030b8:	24090001 	li	t1,1
bfc030bc:	03a0f021 	move	s8,sp
bfc030c0:	03a0003e 	fst	sp
bfc030c4:	afa9fff4 	sw	t1,-12(sp)
bfc030c8:	03e04009 	jalr	t0,ra
bfc030cc:	00000000 	nop
bfc030d0:	8fbf0004 	lw	ra,4(sp)
bfc030d4:	8fbd0000 	lw	sp,0(sp)
bfc030d8:	03e00008 	jr	ra
bfc030dc:	00000000 	nop
bfc030e0:	4bf00c39 	cqip	bfc030e4 <sin+0x190>
bfc030e4:	53f00c39 	pslice_entry	bfc030e4 <sin+0x190>
bfc030e8:	57f00c39 	pslice_exit	bfc030e4 <sin+0x190>
bfc030ec:	3c08bfc0 	lui	t0,0xbfc0
bfc030f0:	25080d7c 	addiu	t0,t0,3452
bfc030f4:	27a600f8 	addiu	a2,sp,248
bfc030f8:	c4cc0000 	lwc1	$f12,0(a2)
bfc030fc:	27a700fc 	addiu	a3,sp,252
bfc03100:	c4ee0000 	lwc1	$f14,0(a3)
bfc03104:	03a0f021 	move	s8,sp
bfc03108:	03a0003e 	fst	sp
bfc0310c:	03e04009 	jalr	t0,ra
bfc03110:	00000000 	nop
bfc03114:	8fbf0004 	lw	ra,4(sp)
bfc03118:	8fbd0000 	lw	sp,0(sp)
bfc0311c:	03e00008 	jr	ra
bfc03120:	00000000 	nop
bfc03124:	4bf00c4a 	cqip	bfc03128 <sin+0x1d4>
bfc03128:	53f00c4a 	pslice_entry	bfc03128 <sin+0x1d4>
bfc0312c:	57f00c4a 	pslice_exit	bfc03128 <sin+0x1d4>
bfc03130:	3c08bfc0 	lui	t0,0xbfc0
bfc03134:	25080f50 	addiu	t0,t0,3920
bfc03138:	27b900f8 	addiu	t9,sp,248
bfc0313c:	c72c0000 	lwc1	$f12,0(t9)
bfc03140:	27a400fc 	addiu	a0,sp,252
bfc03144:	c48e0000 	lwc1	$f14,0(a0)
bfc03148:	24050001 	li	a1,1
bfc0314c:	03a0f021 	move	s8,sp
bfc03150:	03a0003e 	fst	sp
bfc03154:	afa5fff4 	sw	a1,-12(sp)
bfc03158:	03e04009 	jalr	t0,ra
bfc0315c:	00000000 	nop
bfc03160:	46000007 	neg.s	$f0,$f0
bfc03164:	8fbf0004 	lw	ra,4(sp)
bfc03168:	8fbd0000 	lw	sp,0(sp)
bfc0316c:	03e00008 	jr	ra
bfc03170:	00000000 	nop
bfc03174:	4bf00c5e 	cqip	bfc03178 <sin+0x224>
bfc03178:	53f00c5e 	pslice_entry	bfc03178 <sin+0x224>
bfc0317c:	57f00c5e 	pslice_exit	bfc03178 <sin+0x224>
bfc03180:	3c08bfc0 	lui	t0,0xbfc0
bfc03184:	25080d7c 	addiu	t0,t0,3452
bfc03188:	27af00f8 	addiu	t7,sp,248
bfc0318c:	c5ec0000 	lwc1	$f12,0(t7)
bfc03190:	27b800fc 	addiu	t8,sp,252
bfc03194:	c70e0000 	lwc1	$f14,0(t8)
bfc03198:	03a0f021 	move	s8,sp
bfc0319c:	03a0003e 	fst	sp
bfc031a0:	03e04009 	jalr	t0,ra
bfc031a4:	00000000 	nop
bfc031a8:	46000007 	neg.s	$f0,$f0
bfc031ac:	8fbf0004 	lw	ra,4(sp)
bfc031b0:	8fbd0000 	lw	sp,0(sp)
bfc031b4:	03e00008 	jr	ra
bfc031b8:	00000000 	nop

bfc031bc <cos>:
bfc031bc:	27bdff00 	addiu	sp,sp,-256
bfc031c0:	0000003f 	ust
bfc031c4:	afbe0000 	sw	s8,0(sp)
bfc031c8:	afbf0004 	sw	ra,4(sp)
bfc031cc:	24010000 	li	at,0
bfc031d0:	44817000 	mtc1	at,$f14
bfc031d4:	27ab00e0 	addiu	t3,sp,224
bfc031d8:	e56c0000 	swc1	$f12,0(t3)
bfc031dc:	27ac00e0 	addiu	t4,sp,224
bfc031e0:	8d890000 	lw	t1,0(t4)
bfc031e4:	3c0d7fff 	lui	t5,0x7fff
bfc031e8:	35adffff 	ori	t5,t5,0xffff
bfc031ec:	012d4824 	and	t1,t1,t5
bfc031f0:	3c0e3f49 	lui	t6,0x3f49
bfc031f4:	35ce0fd8 	ori	t6,t6,0xfd8
bfc031f8:	01c9782a 	slt	t7,t6,t1
bfc031fc:	39ef0001 	xori	t7,t7,0x1
bfc03200:	11e0000b 	beqz	t7,bfc03230 <cos+0x74>
bfc03204:	00000000 	nop
bfc03208:	3c08bfc0 	lui	t0,0xbfc0
bfc0320c:	25080d7c 	addiu	t0,t0,3452
bfc03210:	03a0f021 	move	s8,sp
bfc03214:	03a0003e 	fst	sp
bfc03218:	03e04009 	jalr	t0,ra
bfc0321c:	00000000 	nop
bfc03220:	8fbf0004 	lw	ra,4(sp)
bfc03224:	8fbd0000 	lw	sp,0(sp)
bfc03228:	03e00008 	jr	ra
bfc0322c:	00000000 	nop
bfc03230:	3c187f80 	lui	t8,0x7f80
bfc03234:	0138c82a 	slt	t9,t1,t8
bfc03238:	3b390001 	xori	t9,t9,0x1
bfc0323c:	13200007 	beqz	t9,bfc0325c <cos+0xa0>
bfc03240:	00000000 	nop
bfc03244:	24010000 	li	at,0
bfc03248:	44810000 	mtc1	at,$f0
bfc0324c:	8fbf0004 	lw	ra,4(sp)
bfc03250:	8fbd0000 	lw	sp,0(sp)
bfc03254:	03e00008 	jr	ra
bfc03258:	00000000 	nop
bfc0325c:	3c08bfc0 	lui	t0,0xbfc0
bfc03260:	25081144 	addiu	t0,t0,4420
bfc03264:	27a600f0 	addiu	a2,sp,240
bfc03268:	03a0f021 	move	s8,sp
bfc0326c:	03a0003e 	fst	sp
bfc03270:	03e04009 	jalr	t0,ra
bfc03274:	00000000 	nop
bfc03278:	24040003 	li	a0,3
bfc0327c:	00445024 	and	t2,v0,a0
bfc03280:	00002821 	move	a1,zero
bfc03284:	01453026 	xor	a2,t2,a1
bfc03288:	2cc60001 	sltiu	a2,a2,1
bfc0328c:	14c0000d 	bnez	a2,bfc032c4 <cos+0x108>
bfc03290:	00000000 	nop
bfc03294:	24070001 	li	a3,1
bfc03298:	01471026 	xor	v0,t2,a3
bfc0329c:	2c420001 	sltiu	v0,v0,1
bfc032a0:	14400016 	bnez	v0,bfc032fc <cos+0x140>
bfc032a4:	00000000 	nop
bfc032a8:	24030002 	li	v1,2
bfc032ac:	01434026 	xor	t0,t2,v1
bfc032b0:	2d080001 	sltiu	t0,t0,1
bfc032b4:	15000022 	bnez	t0,bfc03340 <cos+0x184>
bfc032b8:	00000000 	nop
bfc032bc:	0bf00cdf 	j	bfc0337c <cos+0x1c0>
bfc032c0:	00000000 	nop
bfc032c4:	3c08bfc0 	lui	t0,0xbfc0
bfc032c8:	25080d7c 	addiu	t0,t0,3452
bfc032cc:	27b900f0 	addiu	t9,sp,240
bfc032d0:	c72c0000 	lwc1	$f12,0(t9)
bfc032d4:	27a400f4 	addiu	a0,sp,244
bfc032d8:	c48e0000 	lwc1	$f14,0(a0)
bfc032dc:	03a0f021 	move	s8,sp
bfc032e0:	03a0003e 	fst	sp
bfc032e4:	03e04009 	jalr	t0,ra
bfc032e8:	00000000 	nop
bfc032ec:	8fbf0004 	lw	ra,4(sp)
bfc032f0:	8fbd0000 	lw	sp,0(sp)
bfc032f4:	03e00008 	jr	ra
bfc032f8:	00000000 	nop
bfc032fc:	3c08bfc0 	lui	t0,0xbfc0
bfc03300:	25080f50 	addiu	t0,t0,3920
bfc03304:	27ae00f0 	addiu	t6,sp,240
bfc03308:	c5cc0000 	lwc1	$f12,0(t6)
bfc0330c:	27af00f4 	addiu	t7,sp,244
bfc03310:	c5ee0000 	lwc1	$f14,0(t7)
bfc03314:	24180001 	li	t8,1
bfc03318:	03a0f021 	move	s8,sp
bfc0331c:	03a0003e 	fst	sp
bfc03320:	afb8fff4 	sw	t8,-12(sp)
bfc03324:	03e04009 	jalr	t0,ra
bfc03328:	00000000 	nop
bfc0332c:	46000007 	neg.s	$f0,$f0
bfc03330:	8fbf0004 	lw	ra,4(sp)
bfc03334:	8fbd0000 	lw	sp,0(sp)
bfc03338:	03e00008 	jr	ra
bfc0333c:	00000000 	nop
bfc03340:	3c08bfc0 	lui	t0,0xbfc0
bfc03344:	25080d7c 	addiu	t0,t0,3452
bfc03348:	27ac00f0 	addiu	t4,sp,240
bfc0334c:	c58c0000 	lwc1	$f12,0(t4)
bfc03350:	27ad00f4 	addiu	t5,sp,244
bfc03354:	c5ae0000 	lwc1	$f14,0(t5)
bfc03358:	03a0f021 	move	s8,sp
bfc0335c:	03a0003e 	fst	sp
bfc03360:	03e04009 	jalr	t0,ra
bfc03364:	00000000 	nop
bfc03368:	46000007 	neg.s	$f0,$f0
bfc0336c:	8fbf0004 	lw	ra,4(sp)
bfc03370:	8fbd0000 	lw	sp,0(sp)
bfc03374:	03e00008 	jr	ra
bfc03378:	00000000 	nop
bfc0337c:	3c08bfc0 	lui	t0,0xbfc0
bfc03380:	25080f50 	addiu	t0,t0,3920
bfc03384:	27a900f0 	addiu	t1,sp,240
bfc03388:	c52c0000 	lwc1	$f12,0(t1)
bfc0338c:	27aa00f4 	addiu	t2,sp,244
bfc03390:	c54e0000 	lwc1	$f14,0(t2)
bfc03394:	240b0001 	li	t3,1
bfc03398:	03a0f021 	move	s8,sp
bfc0339c:	03a0003e 	fst	sp
bfc033a0:	afabfff4 	sw	t3,-12(sp)
bfc033a4:	03e04009 	jalr	t0,ra
bfc033a8:	00000000 	nop
bfc033ac:	8fbf0004 	lw	ra,4(sp)
bfc033b0:	8fbd0000 	lw	sp,0(sp)
bfc033b4:	03e00008 	jr	ra
bfc033b8:	00000000 	nop
bfc033bc:	00000000 	nop

bfc033c0 <dealwithargs>:
bfc033c0:	b3f00cf5 	spawn	bfc033d4 <dealwithargs+0x14>
bfc033c4:	27bdffd8 	addiu	sp,sp,-40
bfc033c8:	0000003f 	ust
bfc033cc:	afbe0000 	sw	s8,0(sp)
bfc033d0:	4bf00cf5 	cqip	bfc033d4 <dealwithargs+0x14>
bfc033d4:	53f00cf5 	pslice_entry	bfc033d4 <dealwithargs+0x14>
bfc033d8:	27bdffd8 	addiu	sp,sp,-40
bfc033dc:	57f00cf5 	pslice_exit	bfc033d4 <dealwithargs+0x14>
bfc033e0:	24080002 	li	t0,2
bfc033e4:	0104482a 	slt	t1,t0,a0
bfc033e8:	15200003 	bnez	t1,bfc033f8 <dealwithargs+0x38>
bfc033ec:	00000000 	nop
bfc033f0:	240a0002 	li	t2,2
bfc033f4:	af8a0564 	sw	t2,1380(gp)
bfc033f8:	240b0001 	li	t3,1
bfc033fc:	0164602a 	slt	t4,t3,a0
bfc03400:	15800003 	bnez	t4,bfc03410 <dealwithargs+0x50>
bfc03404:	00000000 	nop
bfc03408:	240d0040 	li	t5,64
bfc0340c:	af8d055c 	sw	t5,1372(gp)
bfc03410:	8fbd0000 	lw	sp,0(sp)
bfc03414:	03e00008 	jr	ra
bfc03418:	00000000 	nop

bfc0341c <my_rand>:
bfc0341c:	b3f00d0c 	spawn	bfc03430 <my_rand+0x14>
bfc03420:	27bdffa0 	addiu	sp,sp,-96
bfc03424:	0000003f 	ust
bfc03428:	afbe0000 	sw	s8,0(sp)
bfc0342c:	4bf00d0c 	cqip	bfc03430 <my_rand+0x14>
bfc03430:	53f00d0c 	pslice_entry	bfc03430 <my_rand+0x14>
bfc03434:	27bdffa0 	addiu	sp,sp,-96
bfc03438:	57f00d0c 	pslice_exit	bfc03430 <my_rand+0x14>
bfc0343c:	c78e05b0 	lwc1	$f14,1456(gp)
bfc03440:	c78f05b4 	lwc1	$f15,1460(gp)
bfc03444:	462c7002 	mul.d	$f0,$f14,$f12
bfc03448:	3c013ff0 	lui	at,0x3ff0
bfc0344c:	44811800 	mtc1	at,$f3
bfc03450:	44801000 	mtc1	zero,$f2
bfc03454:	46220100 	add.d	$f4,$f0,$f2
bfc03458:	c78605b8 	lwc1	$f6,1464(gp)
bfc0345c:	c78705bc 	lwc1	$f7,1468(gp)
bfc03460:	c78805c0 	lwc1	$f8,1472(gp)
bfc03464:	c78905c4 	lwc1	$f9,1476(gp)
bfc03468:	46282283 	div.d	$f10,$f4,$f8
bfc0346c:	46205424 	cvt.w.d	$f16,$f10
bfc03470:	440e8000 	mfc1	t6,$f16
bfc03474:	448e9000 	mtc1	t6,$f18
bfc03478:	46809321 	cvt.d.w	$f12,$f18
bfc0347c:	462c3382 	mul.d	$f14,$f6,$f12
bfc03480:	462e2301 	sub.d	$f12,$f4,$f14
bfc03484:	46206006 	mov.d	$f0,$f12
bfc03488:	8fbd0000 	lw	sp,0(sp)
bfc0348c:	03e00008 	jr	ra
bfc03490:	00000000 	nop

bfc03494 <xrand>:
bfc03494:	b3f00d2a 	spawn	bfc034a8 <xrand+0x14>
bfc03498:	27bdffb8 	addiu	sp,sp,-72
bfc0349c:	0000003f 	ust
bfc034a0:	afbe0000 	sw	s8,0(sp)
bfc034a4:	4bf00d2a 	cqip	bfc034a8 <xrand+0x14>
bfc034a8:	53f00d2a 	pslice_entry	bfc034a8 <xrand+0x14>
bfc034ac:	27bdffb8 	addiu	sp,sp,-72
bfc034b0:	57f00d2a 	pslice_exit	bfc034a8 <xrand+0x14>
bfc034b4:	c7a20030 	lwc1	$f2,48(sp)
bfc034b8:	c7a30034 	lwc1	$f3,52(sp)
bfc034bc:	462c7001 	sub.d	$f0,$f14,$f12
bfc034c0:	46220102 	mul.d	$f4,$f0,$f2
bfc034c4:	c78605c8 	lwc1	$f6,1480(gp)
bfc034c8:	c78705cc 	lwc1	$f7,1484(gp)
bfc034cc:	46262203 	div.d	$f8,$f4,$f6
bfc034d0:	46286000 	add.d	$f0,$f12,$f8
bfc034d4:	8fbd0000 	lw	sp,0(sp)
bfc034d8:	03e00008 	jr	ra
bfc034dc:	00000000 	nop

bfc034e0 <subdivp>:
bfc034e0:	b3f00d3d 	spawn	bfc034f4 <subdivp+0x14>
bfc034e4:	27bdfe98 	addiu	sp,sp,-360
bfc034e8:	0000003f 	ust
bfc034ec:	afbe0000 	sw	s8,0(sp)
bfc034f0:	4bf00d3d 	cqip	bfc034f4 <subdivp+0x14>
bfc034f4:	53f00d3d 	pslice_entry	bfc034f4 <subdivp+0x14>
bfc034f8:	27bdfe98 	addiu	sp,sp,-360
bfc034fc:	57f00d3d 	pslice_exit	bfc034f4 <subdivp+0x14>
bfc03500:	c7b00150 	lwc1	$f16,336(sp)
bfc03504:	c7b10154 	lwc1	$f17,340(sp)
bfc03508:	44867000 	mtc1	a2,$f14
bfc0350c:	44877800 	mtc1	a3,$f15
bfc03510:	00006821 	move	t5,zero
bfc03514:	008d7021 	addu	t6,a0,t5
bfc03518:	85cb0000 	lh	t3,0(t6)
bfc0351c:	240f0001 	li	t7,1
bfc03520:	016fc026 	xor	t8,t3,t7
bfc03524:	2f180001 	sltiu	t8,t8,1
bfc03528:	13000005 	beqz	t8,bfc03540 <subdivp+0x60>
bfc0352c:	00000000 	nop
bfc03530:	00001021 	move	v0,zero
bfc03534:	8fbd0000 	lw	sp,0(sp)
bfc03538:	03e00008 	jr	ra
bfc0353c:	00000000 	nop
bfc03540:	0000c821 	move	t9,zero
bfc03544:	27a500f0 	addiu	a1,sp,240
bfc03548:	24060008 	li	a2,8
bfc0354c:	03260018 	mult	t9,a2
bfc03550:	00003012 	mflo	a2
bfc03554:	00a63821 	addu	a3,a1,a2
bfc03558:	24020010 	li	v0,16
bfc0355c:	00826021 	addu	t4,a0,v0
bfc03560:	24030008 	li	v1,8
bfc03564:	03230018 	mult	t9,v1
bfc03568:	00004012 	mflo	t0
bfc0356c:	01884821 	addu	t1,t4,t0
bfc03570:	c5200000 	lwc1	$f0,0(t1)
bfc03574:	c5210004 	lwc1	$f1,4(t1)
bfc03578:	27aa0118 	addiu	t2,sp,280
bfc0357c:	240b0008 	li	t3,8
bfc03580:	032b0018 	mult	t9,t3
bfc03584:	00006012 	mflo	t4
bfc03588:	014c6821 	addu	t5,t2,t4
bfc0358c:	c5a20000 	lwc1	$f2,0(t5)
bfc03590:	c5a30004 	lwc1	$f3,4(t5)
bfc03594:	46220081 	sub.d	$f2,$f0,$f2
bfc03598:	e4e20000 	swc1	$f2,0(a3)
bfc0359c:	e4e30004 	swc1	$f3,4(a3)
bfc035a0:	240e0001 	li	t6,1
bfc035a4:	032ec821 	addu	t9,t9,t6
bfc035a8:	240f0003 	li	t7,3
bfc035ac:	032fc02a 	slt	t8,t9,t7
bfc035b0:	3b180001 	xori	t8,t8,0x1
bfc035b4:	1300ffe3 	beqz	t8,bfc03544 <subdivp+0x64>
bfc035b8:	00000000 	nop
bfc035bc:	24010000 	li	at,0
bfc035c0:	44812800 	mtc1	at,$f5
bfc035c4:	44802000 	mtc1	zero,$f4
bfc035c8:	0000c821 	move	t9,zero
bfc035cc:	27a400f0 	addiu	a0,sp,240
bfc035d0:	24050008 	li	a1,8
bfc035d4:	03250018 	mult	t9,a1
bfc035d8:	00003012 	mflo	a2
bfc035dc:	00863821 	addu	a3,a0,a2
bfc035e0:	c4e60000 	lwc1	$f6,0(a3)
bfc035e4:	c4e70004 	lwc1	$f7,4(a3)
bfc035e8:	27a200f0 	addiu	v0,sp,240
bfc035ec:	24030008 	li	v1,8
bfc035f0:	03230018 	mult	t9,v1
bfc035f4:	00004012 	mflo	t0
bfc035f8:	00484821 	addu	t1,v0,t0
bfc035fc:	c5280000 	lwc1	$f8,0(t1)
bfc03600:	c5290004 	lwc1	$f9,4(t1)
bfc03604:	46283282 	mul.d	$f10,$f6,$f8
bfc03608:	462a2100 	add.d	$f4,$f4,$f10
bfc0360c:	240a0001 	li	t2,1
bfc03610:	032ac821 	addu	t9,t9,t2
bfc03614:	240b0003 	li	t3,3
bfc03618:	032b602a 	slt	t4,t9,t3
bfc0361c:	398c0001 	xori	t4,t4,0x1
bfc03620:	1180ffea 	beqz	t4,bfc035cc <subdivp+0xec>
bfc03624:	00000000 	nop
bfc03628:	46248482 	mul.d	$f18,$f16,$f4
bfc0362c:	240d0001 	li	t5,1
bfc03630:	462e903c 	c.lt.d	$f18,$f14
bfc03634:	45010002 	bc1t	bfc03640 <subdivp+0x160>
bfc03638:	00000000 	nop
bfc0363c:	00006821 	move	t5,zero
bfc03640:	000d7400 	sll	t6,t5,0x10
bfc03644:	000e1403 	sra	v0,t6,0x10
bfc03648:	8fbd0000 	lw	sp,0(sp)
bfc0364c:	03e00008 	jr	ra
bfc03650:	00000000 	nop

bfc03654 <walksub>:
bfc03654:	b3f00da6 	spawn	bfc03698 <walksub+0x44>
bfc03658:	27bdfee8 	addiu	sp,sp,-280
bfc0365c:	0000003f 	ust
bfc03660:	afbf0004 	sw	ra,4(sp)
bfc03664:	afb00008 	sw	s0,8(sp)
bfc03668:	afb1000c 	sw	s1,12(sp)
bfc0366c:	afb20010 	sw	s2,16(sp)
bfc03670:	afb30014 	sw	s3,20(sp)
bfc03674:	afb40018 	sw	s4,24(sp)
bfc03678:	afb5001c 	sw	s5,28(sp)
bfc0367c:	afb60020 	sw	s6,32(sp)
bfc03680:	e7b40028 	swc1	$f20,40(sp)
bfc03684:	e7b5002c 	swc1	$f21,44(sp)
bfc03688:	e7b60030 	swc1	$f22,48(sp)
bfc0368c:	e7b70034 	swc1	$f23,52(sp)
bfc03690:	afbe0000 	sw	s8,0(sp)
bfc03694:	4bf00da6 	cqip	bfc03698 <walksub+0x44>
bfc03698:	53f00da6 	pslice_entry	bfc03698 <walksub+0x44>
bfc0369c:	27bdfee8 	addiu	sp,sp,-280
bfc036a0:	57f00da6 	pslice_exit	bfc03698 <walksub+0x44>
bfc036a4:	b3f00e80 	spawn	bfc03a00 <walksub+0x3ac>
bfc036a8:	c7b60100 	lwc1	$f22,256(sp)
bfc036ac:	c7b70104 	lwc1	$f23,260(sp)
bfc036b0:	8fb200bc 	lw	s2,188(sp)
bfc036b4:	00808821 	move	s1,a0
bfc036b8:	00a08021 	move	s0,a1
bfc036bc:	44867000 	mtc1	a2,$f14
bfc036c0:	44877800 	mtc1	a3,$f15
bfc036c4:	46207506 	mov.d	$f20,$f14
bfc036c8:	3c08bfc0 	lui	t0,0xbfc0
bfc036cc:	250834e0 	addiu	t0,t0,13536
bfc036d0:	02002021 	move	a0,s0
bfc036d4:	4620a386 	mov.d	$f14,$f20
bfc036d8:	44067000 	mfc1	a2,$f14
bfc036dc:	44077800 	mfc1	a3,$f15
bfc036e0:	03a0f021 	move	s8,sp
bfc036e4:	03a0003e 	fst	sp
bfc036e8:	e7b6ffe8 	swc1	$f22,-24(sp)
bfc036ec:	e7b7ffec 	swc1	$f23,-20(sp)
bfc036f0:	27b800c0 	addiu	t8,sp,192
bfc036f4:	27b3ffa8 	addiu	s3,sp,-88
bfc036f8:	8f190000 	lw	t9,0(t8)
bfc036fc:	8f050004 	lw	a1,4(t8)
bfc03700:	8f020008 	lw	v0,8(t8)
bfc03704:	ae790000 	sw	t9,0(s3)
bfc03708:	ae650004 	sw	a1,4(s3)
bfc0370c:	ae620008 	sw	v0,8(s3)
bfc03710:	8f02000c 	lw	v0,12(t8)
bfc03714:	8f030010 	lw	v1,16(t8)
bfc03718:	8f090014 	lw	t1,20(t8)
bfc0371c:	ae62000c 	sw	v0,12(s3)
bfc03720:	ae630010 	sw	v1,16(s3)
bfc03724:	ae690014 	sw	t1,20(s3)
bfc03728:	8f030018 	lw	v1,24(t8)
bfc0372c:	8f09001c 	lw	t1,28(t8)
bfc03730:	8f0a0020 	lw	t2,32(t8)
bfc03734:	ae630018 	sw	v1,24(s3)
bfc03738:	ae69001c 	sw	t1,28(s3)
bfc0373c:	ae6a0020 	sw	t2,32(s3)
bfc03740:	8f0a0024 	lw	t2,36(t8)
bfc03744:	8f0b0028 	lw	t3,40(t8)
bfc03748:	8f0c002c 	lw	t4,44(t8)
bfc0374c:	ae6a0024 	sw	t2,36(s3)
bfc03750:	ae6b0028 	sw	t3,40(s3)
bfc03754:	ae6c002c 	sw	t4,44(s3)
bfc03758:	8f0d0030 	lw	t5,48(t8)
bfc0375c:	8f0e0034 	lw	t6,52(t8)
bfc03760:	8f0f0038 	lw	t7,56(t8)
bfc03764:	ae6d0030 	sw	t5,48(s3)
bfc03768:	ae6e0034 	sw	t6,52(s3)
bfc0376c:	ae6f0038 	sw	t7,56(s3)
bfc03770:	8f18003c 	lw	t8,60(t8)
bfc03774:	ae78003c 	sw	t8,60(s3)
bfc03778:	03e04009 	jalr	t0,ra
bfc0377c:	00000000 	nop
bfc03780:	0000c821 	move	t9,zero
bfc03784:	00592026 	xor	a0,v0,t9
bfc03788:	0004202b 	sltu	a0,zero,a0
bfc0378c:	1080004b 	beqz	a0,bfc038bc <walksub+0x268>
bfc03790:	00000000 	nop
bfc03794:	00009821 	move	s3,zero
bfc03798:	24050030 	li	a1,48
bfc0379c:	02057021 	addu	t6,s0,a1
bfc037a0:	24060004 	li	a2,4
bfc037a4:	02660018 	mult	s3,a2
bfc037a8:	00003812 	mflo	a3
bfc037ac:	01c71021 	addu	v0,t6,a3
bfc037b0:	8c450000 	lw	a1,0(v0)
bfc037b4:	24030000 	li	v1,0
bfc037b8:	00a34026 	xor	t0,a1,v1
bfc037bc:	0008402b 	sltu	t0,zero,t0
bfc037c0:	11000035 	beqz	t0,bfc03898 <walksub+0x244>
bfc037c4:	00000000 	nop
bfc037c8:	3c08bfc0 	lui	t0,0xbfc0
bfc037cc:	25083654 	addiu	t0,t0,13908
bfc037d0:	3c014010 	lui	at,0x4010
bfc037d4:	44811800 	mtc1	at,$f3
bfc037d8:	44801000 	mtc1	zero,$f2
bfc037dc:	4622a383 	div.d	$f14,$f20,$f2
bfc037e0:	24090001 	li	t1,1
bfc037e4:	0249a021 	addu	s4,s2,t1
bfc037e8:	27a400c0 	addiu	a0,sp,192
bfc037ec:	44067000 	mfc1	a2,$f14
bfc037f0:	44077800 	mfc1	a3,$f15
bfc037f4:	03a0f021 	move	s8,sp
bfc037f8:	03a0003e 	fst	sp
bfc037fc:	e7b6ffe8 	swc1	$f22,-24(sp)
bfc03800:	e7b7ffec 	swc1	$f23,-20(sp)
bfc03804:	27b600c0 	addiu	s6,sp,192
bfc03808:	27b5ffa8 	addiu	s5,sp,-88
bfc0380c:	8eca0000 	lw	t2,0(s6)
bfc03810:	8ecb0004 	lw	t3,4(s6)
bfc03814:	8ecc0008 	lw	t4,8(s6)
bfc03818:	aeaa0000 	sw	t2,0(s5)
bfc0381c:	aeab0004 	sw	t3,4(s5)
bfc03820:	aeac0008 	sw	t4,8(s5)
bfc03824:	8ecd000c 	lw	t5,12(s6)
bfc03828:	8ece0010 	lw	t6,16(s6)
bfc0382c:	8ecf0014 	lw	t7,20(s6)
bfc03830:	aead000c 	sw	t5,12(s5)
bfc03834:	aeae0010 	sw	t6,16(s5)
bfc03838:	aeaf0014 	sw	t7,20(s5)
bfc0383c:	8ed80018 	lw	t8,24(s6)
bfc03840:	8ed9001c 	lw	t9,28(s6)
bfc03844:	8ec20020 	lw	v0,32(s6)
bfc03848:	aeb80018 	sw	t8,24(s5)
bfc0384c:	aeb9001c 	sw	t9,28(s5)
bfc03850:	aea20020 	sw	v0,32(s5)
bfc03854:	8ec20024 	lw	v0,36(s6)
bfc03858:	8ec30028 	lw	v1,40(s6)
bfc0385c:	8ec9002c 	lw	t1,44(s6)
bfc03860:	aea20024 	sw	v0,36(s5)
bfc03864:	aea30028 	sw	v1,40(s5)
bfc03868:	aea9002c 	sw	t1,44(s5)
bfc0386c:	8ec20030 	lw	v0,48(s6)
bfc03870:	8ec30034 	lw	v1,52(s6)
bfc03874:	8ec90038 	lw	t1,56(s6)
bfc03878:	aea20030 	sw	v0,48(s5)
bfc0387c:	aea30034 	sw	v1,52(s5)
bfc03880:	aea90038 	sw	t1,56(s5)
bfc03884:	8ec9003c 	lw	t1,60(s6)
bfc03888:	aea9003c 	sw	t1,60(s5)
bfc0388c:	afb4ffa4 	sw	s4,-92(sp)
bfc03890:	03e04009 	jalr	t0,ra
bfc03894:	00000000 	nop
bfc03898:	240a0001 	li	t2,1
bfc0389c:	026a9821 	addu	s3,s3,t2
bfc038a0:	240b0008 	li	t3,8
bfc038a4:	026b602a 	slt	t4,s3,t3
bfc038a8:	398c0001 	xori	t4,t4,0x1
bfc038ac:	1180ffba 	beqz	t4,bfc03798 <walksub+0x144>
bfc038b0:	00000000 	nop
bfc038b4:	0bf00e5d 	j	bfc03974 <walksub+0x320>
bfc038b8:	00000000 	nop
bfc038bc:	27ad00c0 	addiu	t5,sp,192
bfc038c0:	8daf0000 	lw	t7,0(t5)
bfc038c4:	020f7026 	xor	t6,s0,t7
bfc038c8:	000e702b 	sltu	t6,zero,t6
bfc038cc:	11c00029 	beqz	t6,bfc03974 <walksub+0x320>
bfc038d0:	00000000 	nop
bfc038d4:	3c08bfc0 	lui	t0,0xbfc0
bfc038d8:	25083a44 	addiu	t0,t0,14916
bfc038dc:	27a400c0 	addiu	a0,sp,192
bfc038e0:	02002821 	move	a1,s0
bfc038e4:	27af00c0 	addiu	t7,sp,192
bfc038e8:	8de60000 	lw	a2,0(t7)
bfc038ec:	8de70004 	lw	a3,4(t7)
bfc038f0:	03a0f021 	move	s8,sp
bfc038f4:	03a0003e 	fst	sp
bfc038f8:	27b80000 	addiu	t8,sp,0
bfc038fc:	8df90008 	lw	t9,8(t7)
bfc03900:	af19ffc8 	sw	t9,-56(t8)
bfc03904:	8de2000c 	lw	v0,12(t7)
bfc03908:	af02ffcc 	sw	v0,-52(t8)
bfc0390c:	8de20010 	lw	v0,16(t7)
bfc03910:	af02ffd0 	sw	v0,-48(t8)
bfc03914:	8de20014 	lw	v0,20(t7)
bfc03918:	af02ffd4 	sw	v0,-44(t8)
bfc0391c:	8de20018 	lw	v0,24(t7)
bfc03920:	af02ffd8 	sw	v0,-40(t8)
bfc03924:	8de2001c 	lw	v0,28(t7)
bfc03928:	af02ffdc 	sw	v0,-36(t8)
bfc0392c:	8de30020 	lw	v1,32(t7)
bfc03930:	af03ffe0 	sw	v1,-32(t8)
bfc03934:	8de90024 	lw	t1,36(t7)
bfc03938:	af09ffe4 	sw	t1,-28(t8)
bfc0393c:	8de90028 	lw	t1,40(t7)
bfc03940:	af09ffe8 	sw	t1,-24(t8)
bfc03944:	8dea002c 	lw	t2,44(t7)
bfc03948:	af0affec 	sw	t2,-20(t8)
bfc0394c:	8deb0030 	lw	t3,48(t7)
bfc03950:	af0bfff0 	sw	t3,-16(t8)
bfc03954:	8dec0034 	lw	t4,52(t7)
bfc03958:	af0cfff4 	sw	t4,-12(t8)
bfc0395c:	8ded0038 	lw	t5,56(t7)
bfc03960:	af0dfff8 	sw	t5,-8(t8)
bfc03964:	8dee003c 	lw	t6,60(t7)
bfc03968:	af0efffc 	sw	t6,-4(t8)
bfc0396c:	03e04009 	jalr	t0,ra
bfc03970:	00000000 	nop
bfc03974:	27af00c0 	addiu	t7,sp,192
bfc03978:	26380000 	addiu	t8,s1,0
bfc0397c:	8df90000 	lw	t9,0(t7)
bfc03980:	8de40004 	lw	a0,4(t7)
bfc03984:	8de50008 	lw	a1,8(t7)
bfc03988:	af190000 	sw	t9,0(t8)
bfc0398c:	af040004 	sw	a0,4(t8)
bfc03990:	af050008 	sw	a1,8(t8)
bfc03994:	8de6000c 	lw	a2,12(t7)
bfc03998:	8de70010 	lw	a3,16(t7)
bfc0399c:	8de20014 	lw	v0,20(t7)
bfc039a0:	af06000c 	sw	a2,12(t8)
bfc039a4:	af070010 	sw	a3,16(t8)
bfc039a8:	af020014 	sw	v0,20(t8)
bfc039ac:	8de30018 	lw	v1,24(t7)
bfc039b0:	8de8001c 	lw	t0,28(t7)
bfc039b4:	8de90020 	lw	t1,32(t7)
bfc039b8:	af030018 	sw	v1,24(t8)
bfc039bc:	af08001c 	sw	t0,28(t8)
bfc039c0:	af090020 	sw	t1,32(t8)
bfc039c4:	8dea0024 	lw	t2,36(t7)
bfc039c8:	8deb0028 	lw	t3,40(t7)
bfc039cc:	8dec002c 	lw	t4,44(t7)
bfc039d0:	af0a0024 	sw	t2,36(t8)
bfc039d4:	af0b0028 	sw	t3,40(t8)
bfc039d8:	af0c002c 	sw	t4,44(t8)
bfc039dc:	8ded0030 	lw	t5,48(t7)
bfc039e0:	8dee0034 	lw	t6,52(t7)
bfc039e4:	8df90038 	lw	t9,56(t7)
bfc039e8:	af0d0030 	sw	t5,48(t8)
bfc039ec:	af0e0034 	sw	t6,52(t8)
bfc039f0:	af190038 	sw	t9,56(t8)
bfc039f4:	8df9003c 	lw	t9,60(t7)
bfc039f8:	af19003c 	sw	t9,60(t8)
bfc039fc:	4bf00e80 	cqip	bfc03a00 <walksub+0x3ac>
bfc03a00:	53f00e80 	pslice_entry	bfc03a00 <walksub+0x3ac>
bfc03a04:	57f00e80 	pslice_exit	bfc03a00 <walksub+0x3ac>
bfc03a08:	8fbf0004 	lw	ra,4(sp)
bfc03a0c:	8fb00008 	lw	s0,8(sp)
bfc03a10:	8fb1000c 	lw	s1,12(sp)
bfc03a14:	8fb20010 	lw	s2,16(sp)
bfc03a18:	8fb30014 	lw	s3,20(sp)
bfc03a1c:	8fb40018 	lw	s4,24(sp)
bfc03a20:	8fb5001c 	lw	s5,28(sp)
bfc03a24:	8fb60020 	lw	s6,32(sp)
bfc03a28:	c7b40028 	lwc1	$f20,40(sp)
bfc03a2c:	c7b5002c 	lwc1	$f21,44(sp)
bfc03a30:	c7b60030 	lwc1	$f22,48(sp)
bfc03a34:	c7b70034 	lwc1	$f23,52(sp)
bfc03a38:	8fbd0000 	lw	sp,0(sp)
bfc03a3c:	03e00008 	jr	ra
bfc03a40:	00000000 	nop

bfc03a44 <gravsub>:
bfc03a44:	b3f00e9b 	spawn	bfc03a6c <gravsub+0x28>
bfc03a48:	27bdfdb0 	addiu	sp,sp,-592
bfc03a4c:	0000003f 	ust
bfc03a50:	afbf0004 	sw	ra,4(sp)
bfc03a54:	afb00008 	sw	s0,8(sp)
bfc03a58:	afb1000c 	sw	s1,12(sp)
bfc03a5c:	e7b40010 	swc1	$f20,16(sp)
bfc03a60:	e7b50014 	swc1	$f21,20(sp)
bfc03a64:	afbe0000 	sw	s8,0(sp)
bfc03a68:	4bf00e9b 	cqip	bfc03a6c <gravsub+0x28>
bfc03a6c:	53f00e9b 	pslice_entry	bfc03a6c <gravsub+0x28>
bfc03a70:	27bdfdb0 	addiu	sp,sp,-592
bfc03a74:	57f00e9b 	pslice_exit	bfc03a6c <gravsub+0x28>
bfc03a78:	00808821 	move	s1,a0
bfc03a7c:	00a08021 	move	s0,a1
bfc03a80:	afa60208 	sw	a2,520(sp)
bfc03a84:	afa7020c 	sw	a3,524(sp)
bfc03a88:	00004821 	move	t1,zero
bfc03a8c:	27aa01c0 	addiu	t2,sp,448
bfc03a90:	240b0008 	li	t3,8
bfc03a94:	012b0018 	mult	t1,t3
bfc03a98:	00006012 	mflo	t4
bfc03a9c:	014c6821 	addu	t5,t2,t4
bfc03aa0:	240e0010 	li	t6,16
bfc03aa4:	020e4021 	addu	t0,s0,t6
bfc03aa8:	240f0008 	li	t7,8
bfc03aac:	012f0018 	mult	t1,t7
bfc03ab0:	0000c012 	mflo	t8
bfc03ab4:	0118c821 	addu	t9,t0,t8
bfc03ab8:	c7240000 	lwc1	$f4,0(t9)
bfc03abc:	c7250004 	lwc1	$f5,4(t9)
bfc03ac0:	27a40210 	addiu	a0,sp,528
bfc03ac4:	24050008 	li	a1,8
bfc03ac8:	01250018 	mult	t1,a1
bfc03acc:	00003012 	mflo	a2
bfc03ad0:	00863821 	addu	a3,a0,a2
bfc03ad4:	c4e60000 	lwc1	$f6,0(a3)
bfc03ad8:	c4e70004 	lwc1	$f7,4(a3)
bfc03adc:	46262201 	sub.d	$f8,$f4,$f6
bfc03ae0:	e5a80000 	swc1	$f8,0(t5)
bfc03ae4:	e5a90004 	swc1	$f9,4(t5)
bfc03ae8:	24020001 	li	v0,1
bfc03aec:	01224821 	addu	t1,t1,v0
bfc03af0:	24030003 	li	v1,3
bfc03af4:	0123402a 	slt	t0,t1,v1
bfc03af8:	39080001 	xori	t0,t0,0x1
bfc03afc:	1100ffe3 	beqz	t0,bfc03a8c <gravsub+0x48>
bfc03b00:	00000000 	nop
bfc03b04:	24010000 	li	at,0
bfc03b08:	4481a800 	mtc1	at,$f21
bfc03b0c:	4480a000 	mtc1	zero,$f20
bfc03b10:	00004821 	move	t1,zero
bfc03b14:	27aa01c0 	addiu	t2,sp,448
bfc03b18:	240b0008 	li	t3,8
bfc03b1c:	012b0018 	mult	t1,t3
bfc03b20:	00006012 	mflo	t4
bfc03b24:	014c6821 	addu	t5,t2,t4
bfc03b28:	c5aa0000 	lwc1	$f10,0(t5)
bfc03b2c:	c5ab0004 	lwc1	$f11,4(t5)
bfc03b30:	27ae01c0 	addiu	t6,sp,448
bfc03b34:	240f0008 	li	t7,8
bfc03b38:	012f0018 	mult	t1,t7
bfc03b3c:	0000c012 	mflo	t8
bfc03b40:	01d8c821 	addu	t9,t6,t8
bfc03b44:	c7300000 	lwc1	$f16,0(t9)
bfc03b48:	c7310004 	lwc1	$f17,4(t9)
bfc03b4c:	46305482 	mul.d	$f18,$f10,$f16
bfc03b50:	4632a500 	add.d	$f20,$f20,$f18
bfc03b54:	24040001 	li	a0,1
bfc03b58:	01244821 	addu	t1,t1,a0
bfc03b5c:	24050003 	li	a1,3
bfc03b60:	0125302a 	slt	a2,t1,a1
bfc03b64:	38c60001 	xori	a2,a2,0x1
bfc03b68:	10c0ffea 	beqz	a2,bfc03b14 <gravsub+0xd0>
bfc03b6c:	00000000 	nop
bfc03b70:	c78c05d0 	lwc1	$f12,1488(gp)
bfc03b74:	c78d05d4 	lwc1	$f13,1492(gp)
bfc03b78:	462ca500 	add.d	$f20,$f20,$f12
bfc03b7c:	3c08bfc0 	lui	t0,0xbfc0
bfc03b80:	25080780 	addiu	t0,t0,1920
bfc03b84:	4620a306 	mov.d	$f12,$f20
bfc03b88:	03a0f021 	move	s8,sp
bfc03b8c:	03a0003e 	fst	sp
bfc03b90:	03e04009 	jalr	t0,ra
bfc03b94:	00000000 	nop
bfc03b98:	24070008 	li	a3,8
bfc03b9c:	02071021 	addu	v0,s0,a3
bfc03ba0:	c44e0000 	lwc1	$f14,0(v0)
bfc03ba4:	c44f0004 	lwc1	$f15,4(v0)
bfc03ba8:	46207003 	div.d	$f0,$f14,$f0
bfc03bac:	27a30228 	addiu	v1,sp,552
bfc03bb0:	27a80228 	addiu	t0,sp,552
bfc03bb4:	c5020000 	lwc1	$f2,0(t0)
bfc03bb8:	c5030004 	lwc1	$f3,4(t0)
bfc03bbc:	46201101 	sub.d	$f4,$f2,$f0
bfc03bc0:	e4640000 	swc1	$f4,0(v1)
bfc03bc4:	e4650004 	swc1	$f5,4(v1)
bfc03bc8:	46340183 	div.d	$f6,$f0,$f20
bfc03bcc:	00004821 	move	t1,zero
bfc03bd0:	27aa01d8 	addiu	t2,sp,472
bfc03bd4:	240b0008 	li	t3,8
bfc03bd8:	012b0018 	mult	t1,t3
bfc03bdc:	00006012 	mflo	t4
bfc03be0:	014c6821 	addu	t5,t2,t4
bfc03be4:	27ae01c0 	addiu	t6,sp,448
bfc03be8:	240f0008 	li	t7,8
bfc03bec:	012f0018 	mult	t1,t7
bfc03bf0:	0000c012 	mflo	t8
bfc03bf4:	01d8c821 	addu	t9,t6,t8
bfc03bf8:	c7280000 	lwc1	$f8,0(t9)
bfc03bfc:	c7290004 	lwc1	$f9,4(t9)
bfc03c00:	46264282 	mul.d	$f10,$f8,$f6
bfc03c04:	e5aa0000 	swc1	$f10,0(t5)
bfc03c08:	e5ab0004 	swc1	$f11,4(t5)
bfc03c0c:	24040001 	li	a0,1
bfc03c10:	01244821 	addu	t1,t1,a0
bfc03c14:	24050003 	li	a1,3
bfc03c18:	0125302a 	slt	a2,t1,a1
bfc03c1c:	38c60001 	xori	a2,a2,0x1
bfc03c20:	10c0ffeb 	beqz	a2,bfc03bd0 <gravsub+0x18c>
bfc03c24:	00000000 	nop
bfc03c28:	00003821 	move	a3,zero
bfc03c2c:	27a20230 	addiu	v0,sp,560
bfc03c30:	24030008 	li	v1,8
bfc03c34:	00e30018 	mult	a3,v1
bfc03c38:	00004012 	mflo	t0
bfc03c3c:	00484821 	addu	t1,v0,t0
bfc03c40:	27aa0230 	addiu	t2,sp,560
bfc03c44:	240b0008 	li	t3,8
bfc03c48:	00eb0018 	mult	a3,t3
bfc03c4c:	00006012 	mflo	t4
bfc03c50:	014c6821 	addu	t5,t2,t4
bfc03c54:	c5b00000 	lwc1	$f16,0(t5)
bfc03c58:	c5b10004 	lwc1	$f17,4(t5)
bfc03c5c:	27ae01d8 	addiu	t6,sp,472
bfc03c60:	240f0008 	li	t7,8
bfc03c64:	00ef0018 	mult	a3,t7
bfc03c68:	0000c012 	mflo	t8
bfc03c6c:	01d8c821 	addu	t9,t6,t8
bfc03c70:	c7320000 	lwc1	$f18,0(t9)
bfc03c74:	c7330004 	lwc1	$f19,4(t9)
bfc03c78:	46328300 	add.d	$f12,$f16,$f18
bfc03c7c:	e52c0000 	swc1	$f12,0(t1)
bfc03c80:	e52d0004 	swc1	$f13,4(t1)
bfc03c84:	24040001 	li	a0,1
bfc03c88:	00e43821 	addu	a3,a3,a0
bfc03c8c:	24050003 	li	a1,3
bfc03c90:	00e5302a 	slt	a2,a3,a1
bfc03c94:	38c60001 	xori	a2,a2,0x1
bfc03c98:	10c0ffe4 	beqz	a2,bfc03c2c <gravsub+0x1e8>
bfc03c9c:	00000000 	nop
bfc03ca0:	27a70208 	addiu	a3,sp,520
bfc03ca4:	26220000 	addiu	v0,s1,0
bfc03ca8:	8ce30000 	lw	v1,0(a3)
bfc03cac:	8ce80004 	lw	t0,4(a3)
bfc03cb0:	8ce90008 	lw	t1,8(a3)
bfc03cb4:	ac430000 	sw	v1,0(v0)
bfc03cb8:	ac480004 	sw	t0,4(v0)
bfc03cbc:	ac490008 	sw	t1,8(v0)
bfc03cc0:	8cea000c 	lw	t2,12(a3)
bfc03cc4:	8ceb0010 	lw	t3,16(a3)
bfc03cc8:	8cec0014 	lw	t4,20(a3)
bfc03ccc:	ac4a000c 	sw	t2,12(v0)
bfc03cd0:	ac4b0010 	sw	t3,16(v0)
bfc03cd4:	ac4c0014 	sw	t4,20(v0)
bfc03cd8:	8ced0018 	lw	t5,24(a3)
bfc03cdc:	8cee001c 	lw	t6,28(a3)
bfc03ce0:	8cef0020 	lw	t7,32(a3)
bfc03ce4:	ac4d0018 	sw	t5,24(v0)
bfc03ce8:	ac4e001c 	sw	t6,28(v0)
bfc03cec:	ac4f0020 	sw	t7,32(v0)
bfc03cf0:	8cf80024 	lw	t8,36(a3)
bfc03cf4:	8cf90028 	lw	t9,40(a3)
bfc03cf8:	8ce4002c 	lw	a0,44(a3)
bfc03cfc:	ac580024 	sw	t8,36(v0)
bfc03d00:	ac590028 	sw	t9,40(v0)
bfc03d04:	ac44002c 	sw	a0,44(v0)
bfc03d08:	8ce50030 	lw	a1,48(a3)
bfc03d0c:	8ce60034 	lw	a2,52(a3)
bfc03d10:	8ce30038 	lw	v1,56(a3)
bfc03d14:	ac450030 	sw	a1,48(v0)
bfc03d18:	ac460034 	sw	a2,52(v0)
bfc03d1c:	ac430038 	sw	v1,56(v0)
bfc03d20:	8ce3003c 	lw	v1,60(a3)
bfc03d24:	ac43003c 	sw	v1,60(v0)
bfc03d28:	8fbf0004 	lw	ra,4(sp)
bfc03d2c:	8fb00008 	lw	s0,8(sp)
bfc03d30:	8fb1000c 	lw	s1,12(sp)
bfc03d34:	c7b40010 	lwc1	$f20,16(sp)
bfc03d38:	c7b50014 	lwc1	$f21,20(sp)
bfc03d3c:	8fbd0000 	lw	sp,0(sp)
bfc03d40:	03e00008 	jr	ra
bfc03d44:	00000000 	nop

bfc03d48 <intcoord>:
bfc03d48:	b3f00f5a 	spawn	bfc03d68 <intcoord+0x20>
bfc03d4c:	27bdfdf8 	addiu	sp,sp,-520
bfc03d50:	0000003f 	ust
bfc03d54:	afbf0004 	sw	ra,4(sp)
bfc03d58:	e7b40008 	swc1	$f20,8(sp)
bfc03d5c:	e7b5000c 	swc1	$f21,12(sp)
bfc03d60:	afbe0000 	sw	s8,0(sp)
bfc03d64:	4bf00f5a 	cqip	bfc03d68 <intcoord+0x20>
bfc03d68:	53f00f5a 	pslice_entry	bfc03d68 <intcoord+0x20>
bfc03d6c:	27bdfdf8 	addiu	sp,sp,-520
bfc03d70:	57f00f5a 	pslice_exit	bfc03d68 <intcoord+0x20>
bfc03d74:	27a701ec 	addiu	a3,sp,492
bfc03d78:	24020001 	li	v0,1
bfc03d7c:	a4e20000 	sh	v0,0(a3)
bfc03d80:	24020018 	li	v0,24
bfc03d84:	00c21821 	addu	v1,a2,v0
bfc03d88:	c4740000 	lwc1	$f20,0(v1)
bfc03d8c:	c4750004 	lwc1	$f21,4(v1)
bfc03d90:	27a801c0 	addiu	t0,sp,448
bfc03d94:	24090010 	li	t1,16
bfc03d98:	00a9c021 	addu	t8,a1,t1
bfc03d9c:	c7120000 	lwc1	$f18,0(t8)
bfc03da0:	c7130004 	lwc1	$f19,4(t8)
bfc03da4:	e5120000 	swc1	$f18,0(t0)
bfc03da8:	e5130004 	swc1	$f19,4(t0)
bfc03dac:	27aa01c8 	addiu	t2,sp,456
bfc03db0:	240b0018 	li	t3,24
bfc03db4:	00ab6021 	addu	t4,a1,t3
bfc03db8:	c58c0000 	lwc1	$f12,0(t4)
bfc03dbc:	c58d0004 	lwc1	$f13,4(t4)
bfc03dc0:	e54c0000 	swc1	$f12,0(t2)
bfc03dc4:	e54d0004 	swc1	$f13,4(t2)
bfc03dc8:	27ad01d0 	addiu	t5,sp,464
bfc03dcc:	240e0020 	li	t6,32
bfc03dd0:	00ae7821 	addu	t7,a1,t6
bfc03dd4:	c5ee0000 	lwc1	$f14,0(t7)
bfc03dd8:	c5ef0004 	lwc1	$f15,4(t7)
bfc03ddc:	e5ae0000 	swc1	$f14,0(t5)
bfc03de0:	e5af0004 	swc1	$f15,4(t5)
bfc03de4:	27b801c0 	addiu	t8,sp,448
bfc03de8:	c7000000 	lwc1	$f0,0(t8)
bfc03dec:	c7010004 	lwc1	$f1,4(t8)
bfc03df0:	0000c821 	move	t9,zero
bfc03df4:	00d97821 	addu	t7,a2,t9
bfc03df8:	c5e20000 	lwc1	$f2,0(t7)
bfc03dfc:	c5e30004 	lwc1	$f3,4(t7)
bfc03e00:	46220101 	sub.d	$f4,$f0,$f2
bfc03e04:	46342183 	div.d	$f6,$f4,$f20
bfc03e08:	24010000 	li	at,0
bfc03e0c:	44814800 	mtc1	at,$f9
bfc03e10:	44804000 	mtc1	zero,$f8
bfc03e14:	24190001 	li	t9,1
bfc03e18:	4626403e 	c.le.d	$f8,$f6
bfc03e1c:	45010002 	bc1t	bfc03e28 <intcoord+0xe0>
bfc03e20:	00000000 	nop
bfc03e24:	0000c821 	move	t9,zero
bfc03e28:	17200003 	bnez	t9,bfc03e38 <intcoord+0xf0>
bfc03e2c:	00000000 	nop
bfc03e30:	0bf00f96 	j	bfc03e58 <intcoord+0x110>
bfc03e34:	00000000 	nop
bfc03e38:	3c013ff0 	lui	at,0x3ff0
bfc03e3c:	44815800 	mtc1	at,$f11
bfc03e40:	44805000 	mtc1	zero,$f10
bfc03e44:	24190001 	li	t9,1
bfc03e48:	462a303c 	c.lt.d	$f6,$f10
bfc03e4c:	45010002 	bc1t	bfc03e58 <intcoord+0x110>
bfc03e50:	00000000 	nop
bfc03e54:	0000c821 	move	t9,zero
bfc03e58:	1320000f 	beqz	t9,bfc03e98 <intcoord+0x150>
bfc03e5c:	00000000 	nop
bfc03e60:	27a501e0 	addiu	a1,sp,480
bfc03e64:	3c0141d0 	lui	at,0x41d0
bfc03e68:	44818800 	mtc1	at,$f17
bfc03e6c:	44808000 	mtc1	zero,$f16
bfc03e70:	46268482 	mul.d	$f18,$f16,$f6
bfc03e74:	46209324 	cvt.w.d	$f12,$f18
bfc03e78:	44076000 	mfc1	a3,$f12
bfc03e7c:	44877000 	mtc1	a3,$f14
bfc03e80:	46807021 	cvt.d.w	$f0,$f14
bfc03e84:	462000a4 	cvt.w.d	$f2,$f0
bfc03e88:	44071000 	mfc1	a3,$f2
bfc03e8c:	aca70000 	sw	a3,0(a1)
bfc03e90:	0bf00fa9 	j	bfc03ea4 <intcoord+0x15c>
bfc03e94:	00000000 	nop
bfc03e98:	27a701ec 	addiu	a3,sp,492
bfc03e9c:	00001021 	move	v0,zero
bfc03ea0:	a4e20000 	sh	v0,0(a3)
bfc03ea4:	27a301c8 	addiu	v1,sp,456
bfc03ea8:	c4640000 	lwc1	$f4,0(v1)
bfc03eac:	c4650004 	lwc1	$f5,4(v1)
bfc03eb0:	24080008 	li	t0,8
bfc03eb4:	00c84821 	addu	t1,a2,t0
bfc03eb8:	c5260000 	lwc1	$f6,0(t1)
bfc03ebc:	c5270004 	lwc1	$f7,4(t1)
bfc03ec0:	46262201 	sub.d	$f8,$f4,$f6
bfc03ec4:	46344183 	div.d	$f6,$f8,$f20
bfc03ec8:	24010000 	li	at,0
bfc03ecc:	44815800 	mtc1	at,$f11
bfc03ed0:	44805000 	mtc1	zero,$f10
bfc03ed4:	24050001 	li	a1,1
bfc03ed8:	4626503e 	c.le.d	$f10,$f6
bfc03edc:	45010002 	bc1t	bfc03ee8 <intcoord+0x1a0>
bfc03ee0:	00000000 	nop
bfc03ee4:	00002821 	move	a1,zero
bfc03ee8:	14a00003 	bnez	a1,bfc03ef8 <intcoord+0x1b0>
bfc03eec:	00000000 	nop
bfc03ef0:	0bf00fc6 	j	bfc03f18 <intcoord+0x1d0>
bfc03ef4:	00000000 	nop
bfc03ef8:	3c013ff0 	lui	at,0x3ff0
bfc03efc:	44818800 	mtc1	at,$f17
bfc03f00:	44808000 	mtc1	zero,$f16
bfc03f04:	24050001 	li	a1,1
bfc03f08:	4630303c 	c.lt.d	$f6,$f16
bfc03f0c:	45010002 	bc1t	bfc03f18 <intcoord+0x1d0>
bfc03f10:	00000000 	nop
bfc03f14:	00002821 	move	a1,zero
bfc03f18:	10a0000f 	beqz	a1,bfc03f58 <intcoord+0x210>
bfc03f1c:	00000000 	nop
bfc03f20:	27aa01e4 	addiu	t2,sp,484
bfc03f24:	3c0141d0 	lui	at,0x41d0
bfc03f28:	44819800 	mtc1	at,$f19
bfc03f2c:	44809000 	mtc1	zero,$f18
bfc03f30:	46269302 	mul.d	$f12,$f18,$f6
bfc03f34:	462063a4 	cvt.w.d	$f14,$f12
bfc03f38:	440b7000 	mfc1	t3,$f14
bfc03f3c:	448b0000 	mtc1	t3,$f0
bfc03f40:	468000a1 	cvt.d.w	$f2,$f0
bfc03f44:	46201124 	cvt.w.d	$f4,$f2
bfc03f48:	440c2000 	mfc1	t4,$f4
bfc03f4c:	ad4c0000 	sw	t4,0(t2)
bfc03f50:	0bf00fd9 	j	bfc03f64 <intcoord+0x21c>
bfc03f54:	00000000 	nop
bfc03f58:	27ad01ec 	addiu	t5,sp,492
bfc03f5c:	00007021 	move	t6,zero
bfc03f60:	a5ae0000 	sh	t6,0(t5)
bfc03f64:	27af01d0 	addiu	t7,sp,464
bfc03f68:	c5e60000 	lwc1	$f6,0(t7)
bfc03f6c:	c5e70004 	lwc1	$f7,4(t7)
bfc03f70:	24180010 	li	t8,16
bfc03f74:	00d8c821 	addu	t9,a2,t8
bfc03f78:	c7280000 	lwc1	$f8,0(t9)
bfc03f7c:	c7290004 	lwc1	$f9,4(t9)
bfc03f80:	46283281 	sub.d	$f10,$f6,$f8
bfc03f84:	46345183 	div.d	$f6,$f10,$f20
bfc03f88:	24010000 	li	at,0
bfc03f8c:	44818800 	mtc1	at,$f17
bfc03f90:	44808000 	mtc1	zero,$f16
bfc03f94:	24050001 	li	a1,1
bfc03f98:	4626803e 	c.le.d	$f16,$f6
bfc03f9c:	45010002 	bc1t	bfc03fa8 <intcoord+0x260>
bfc03fa0:	00000000 	nop
bfc03fa4:	00002821 	move	a1,zero
bfc03fa8:	14a00003 	bnez	a1,bfc03fb8 <intcoord+0x270>
bfc03fac:	00000000 	nop
bfc03fb0:	0bf00ff6 	j	bfc03fd8 <intcoord+0x290>
bfc03fb4:	00000000 	nop
bfc03fb8:	3c013ff0 	lui	at,0x3ff0
bfc03fbc:	44819800 	mtc1	at,$f19
bfc03fc0:	44809000 	mtc1	zero,$f18
bfc03fc4:	24050001 	li	a1,1
bfc03fc8:	4632303c 	c.lt.d	$f6,$f18
bfc03fcc:	45010002 	bc1t	bfc03fd8 <intcoord+0x290>
bfc03fd0:	00000000 	nop
bfc03fd4:	00002821 	move	a1,zero
bfc03fd8:	10a0000f 	beqz	a1,bfc04018 <intcoord+0x2d0>
bfc03fdc:	00000000 	nop
bfc03fe0:	27a501e8 	addiu	a1,sp,488
bfc03fe4:	3c0141d0 	lui	at,0x41d0
bfc03fe8:	44816800 	mtc1	at,$f13
bfc03fec:	44806000 	mtc1	zero,$f12
bfc03ff0:	46266382 	mul.d	$f14,$f12,$f6
bfc03ff4:	46207024 	cvt.w.d	$f0,$f14
bfc03ff8:	44060000 	mfc1	a2,$f0
bfc03ffc:	44861000 	mtc1	a2,$f2
bfc04000:	46801121 	cvt.d.w	$f4,$f2
bfc04004:	462021a4 	cvt.w.d	$f6,$f4
bfc04008:	44063000 	mfc1	a2,$f6
bfc0400c:	aca60000 	sw	a2,0(a1)
bfc04010:	0bf01009 	j	bfc04024 <intcoord+0x2dc>
bfc04014:	00000000 	nop
bfc04018:	27a701ec 	addiu	a3,sp,492
bfc0401c:	00001021 	move	v0,zero
bfc04020:	a4e20000 	sh	v0,0(a3)
bfc04024:	27a301e0 	addiu	v1,sp,480
bfc04028:	24880000 	addiu	t0,a0,0
bfc0402c:	8c690000 	lw	t1,0(v1)
bfc04030:	8c6a0004 	lw	t2,4(v1)
bfc04034:	8c6b0008 	lw	t3,8(v1)
bfc04038:	ad090000 	sw	t1,0(t0)
bfc0403c:	ad0a0004 	sw	t2,4(t0)
bfc04040:	ad0b0008 	sw	t3,8(t0)
bfc04044:	8c6c000c 	lw	t4,12(v1)
bfc04048:	ad0c000c 	sw	t4,12(t0)
bfc0404c:	8fbf0004 	lw	ra,4(sp)
bfc04050:	c7b40008 	lwc1	$f20,8(sp)
bfc04054:	c7b5000c 	lwc1	$f21,12(sp)
bfc04058:	8fbd0000 	lw	sp,0(sp)
bfc0405c:	03e00008 	jr	ra
bfc04060:	00000000 	nop

bfc04064 <computegrav>:
bfc04064:	b3f01026 	spawn	bfc04098 <computegrav+0x34>
bfc04068:	27bdff60 	addiu	sp,sp,-160
bfc0406c:	0000003f 	ust
bfc04070:	afbf0004 	sw	ra,4(sp)
bfc04074:	afb00008 	sw	s0,8(sp)
bfc04078:	afb1000c 	sw	s1,12(sp)
bfc0407c:	afb20010 	sw	s2,16(sp)
bfc04080:	e7b40018 	swc1	$f20,24(sp)
bfc04084:	e7b5001c 	swc1	$f21,28(sp)
bfc04088:	e7b60020 	swc1	$f22,32(sp)
bfc0408c:	e7b70024 	swc1	$f23,36(sp)
bfc04090:	afbe0000 	sw	s8,0(sp)
bfc04094:	4bf01026 	cqip	bfc04098 <computegrav+0x34>
bfc04098:	53f01026 	pslice_entry	bfc04098 <computegrav+0x34>
bfc0409c:	27bdff60 	addiu	sp,sp,-160
bfc040a0:	57f01026 	pslice_exit	bfc04098 <computegrav+0x34>
bfc040a4:	b3f0105d 	spawn	bfc04174 <computegrav+0x110>
bfc040a8:	00808821 	move	s1,a0
bfc040ac:	00a08021 	move	s0,a1
bfc040b0:	240b0018 	li	t3,24
bfc040b4:	022b6021 	addu	t4,s1,t3
bfc040b8:	c5940000 	lwc1	$f20,0(t4)
bfc040bc:	c5950004 	lwc1	$f21,4(t4)
bfc040c0:	c79605d8 	lwc1	$f22,1496(gp)
bfc040c4:	c79705dc 	lwc1	$f23,1500(gp)
bfc040c8:	00006821 	move	t5,zero
bfc040cc:	240e0001 	li	t6,1
bfc040d0:	8f8f0564 	lw	t7,1380(gp)
bfc040d4:	01eec023 	subu	t8,t7,t6
bfc040d8:	030dc82a 	slt	t9,t8,t5
bfc040dc:	3b390001 	xori	t9,t9,0x1
bfc040e0:	13200020 	beqz	t9,bfc04164 <computegrav+0x100>
bfc040e4:	00000000 	nop
bfc040e8:	24040001 	li	a0,1
bfc040ec:	8f850564 	lw	a1,1380(gp)
bfc040f0:	00a49023 	subu	s2,a1,a0
bfc040f4:	24060020 	li	a2,32
bfc040f8:	02263821 	addu	a3,s1,a2
bfc040fc:	8ce60000 	lw	a2,0(a3)
bfc04100:	24020124 	li	v0,292
bfc04104:	02225021 	addu	t2,s1,v0
bfc04108:	24030004 	li	v1,4
bfc0410c:	02430018 	mult	s2,v1
bfc04110:	00004012 	mflo	t0
bfc04114:	01484821 	addu	t1,t2,t0
bfc04118:	8d270000 	lw	a3,0(t1)
bfc0411c:	3c08bfc0 	lui	t0,0xbfc0
bfc04120:	25087940 	addiu	t0,t0,31040
bfc04124:	4620a306 	mov.d	$f12,$f20
bfc04128:	03a0f021 	move	s8,sp
bfc0412c:	03a0003e 	fst	sp
bfc04130:	afb0ffec 	sw	s0,-20(sp)
bfc04134:	e7b6ffe0 	swc1	$f22,-32(sp)
bfc04138:	e7b7ffe4 	swc1	$f23,-28(sp)
bfc0413c:	03e04009 	jalr	t0,ra
bfc04140:	00000000 	nop
bfc04144:	240affff 	li	t2,-1
bfc04148:	024a9021 	addu	s2,s2,t2
bfc0414c:	00005821 	move	t3,zero
bfc04150:	024b602a 	slt	t4,s2,t3
bfc04154:	1180ffe7 	beqz	t4,bfc040f4 <computegrav+0x90>
bfc04158:	00000000 	nop
bfc0415c:	0bf0105c 	j	bfc04170 <computegrav+0x10c>
bfc04160:	00000000 	nop
bfc04164:	240d0001 	li	t5,1
bfc04168:	8f8e0564 	lw	t6,1380(gp)
bfc0416c:	01cd9023 	subu	s2,t6,t5
bfc04170:	4bf0105d 	cqip	bfc04174 <computegrav+0x110>
bfc04174:	53f0105d 	pslice_entry	bfc04174 <computegrav+0x110>
bfc04178:	57f0105d 	pslice_exit	bfc04174 <computegrav+0x110>
bfc0417c:	8fbf0004 	lw	ra,4(sp)
bfc04180:	8fb00008 	lw	s0,8(sp)
bfc04184:	8fb1000c 	lw	s1,12(sp)
bfc04188:	8fb20010 	lw	s2,16(sp)
bfc0418c:	c7b40018 	lwc1	$f20,24(sp)
bfc04190:	c7b5001c 	lwc1	$f21,28(sp)
bfc04194:	c7b60020 	lwc1	$f22,32(sp)
bfc04198:	c7b70024 	lwc1	$f23,36(sp)
bfc0419c:	8fbd0000 	lw	sp,0(sp)
bfc041a0:	03e00008 	jr	ra
bfc041a4:	00000000 	nop

bfc041a8 <maketree>:
bfc041a8:	b3f01075 	spawn	bfc041d4 <maketree+0x2c>
bfc041ac:	27bdfef8 	addiu	sp,sp,-264
bfc041b0:	0000003f 	ust
bfc041b4:	afbf0004 	sw	ra,4(sp)
bfc041b8:	afb00008 	sw	s0,8(sp)
bfc041bc:	afb1000c 	sw	s1,12(sp)
bfc041c0:	afb20010 	sw	s2,16(sp)
bfc041c4:	afb30014 	sw	s3,20(sp)
bfc041c8:	afb40018 	sw	s4,24(sp)
bfc041cc:	afbe0000 	sw	s8,0(sp)
bfc041d0:	4bf01075 	cqip	bfc041d4 <maketree+0x2c>
bfc041d4:	53f01075 	pslice_entry	bfc041d4 <maketree+0x2c>
bfc041d8:	27bdfef8 	addiu	sp,sp,-264
bfc041dc:	57f01075 	pslice_exit	bfc041d4 <maketree+0x2c>
bfc041e0:	b3f010f2 	spawn	bfc043c8 <maketree+0x220>
bfc041e4:	8fb300f4 	lw	s3,244(sp)
bfc041e8:	00809021 	move	s2,a0
bfc041ec:	00c08821 	move	s1,a2
bfc041f0:	00e08021 	move	s0,a3
bfc041f4:	24180020 	li	t8,32
bfc041f8:	0238c821 	addu	t9,s1,t8
bfc041fc:	24040000 	li	a0,0
bfc04200:	af240000 	sw	a0,0(t9)
bfc04204:	af85055c 	sw	a1,1372(gp)
bfc04208:	00002821 	move	a1,zero
bfc0420c:	24060001 	li	a2,1
bfc04210:	8f870564 	lw	a3,1380(gp)
bfc04214:	00e61023 	subu	v0,a3,a2
bfc04218:	0045182a 	slt	v1,v0,a1
bfc0421c:	38630001 	xori	v1,v1,0x1
bfc04220:	10600059 	beqz	v1,bfc04388 <maketree+0x1e0>
bfc04224:	00000000 	nop
bfc04228:	24080001 	li	t0,1
bfc0422c:	8f890564 	lw	t1,1380(gp)
bfc04230:	0128a023 	subu	s4,t1,t0
bfc04234:	240a0124 	li	t2,292
bfc04238:	022a7821 	addu	t7,s1,t2
bfc0423c:	240b0004 	li	t3,4
bfc04240:	028b0018 	mult	s4,t3
bfc04244:	00006012 	mflo	t4
bfc04248:	01ec6821 	addu	t5,t7,t4
bfc0424c:	8db20000 	lw	s2,0(t5)
bfc04250:	240e0000 	li	t6,0
bfc04254:	024e7826 	xor	t7,s2,t6
bfc04258:	000f782b 	sltu	t7,zero,t7
bfc0425c:	11e00042 	beqz	t7,bfc04368 <maketree+0x1c0>
bfc04260:	00000000 	nop
bfc04264:	24180008 	li	t8,8
bfc04268:	0258c821 	addu	t9,s2,t8
bfc0426c:	c7240000 	lwc1	$f4,0(t9)
bfc04270:	c7250004 	lwc1	$f5,4(t9)
bfc04274:	24010000 	li	at,0
bfc04278:	44813800 	mtc1	at,$f7
bfc0427c:	44803000 	mtc1	zero,$f6
bfc04280:	00002021 	move	a0,zero
bfc04284:	4626203a 	c.seq.d	$f4,$f6
bfc04288:	45010002 	bc1t	bfc04294 <maketree+0xec>
bfc0428c:	00000000 	nop
bfc04290:	24040001 	li	a0,1
bfc04294:	1080002c 	beqz	a0,bfc04348 <maketree+0x1a0>
bfc04298:	00000000 	nop
bfc0429c:	3c08bfc0 	lui	t0,0xbfc0
bfc042a0:	25087f28 	addiu	t0,t0,32552
bfc042a4:	02402021 	move	a0,s2
bfc042a8:	02202821 	move	a1,s1
bfc042ac:	02003021 	move	a2,s0
bfc042b0:	02603821 	move	a3,s3
bfc042b4:	03a0f021 	move	s8,sp
bfc042b8:	03a0003e 	fst	sp
bfc042bc:	03e04009 	jalr	t0,ra
bfc042c0:	00000000 	nop
bfc042c4:	3c08bfc0 	lui	t0,0xbfc0
bfc042c8:	25083d48 	addiu	t0,t0,15688
bfc042cc:	27a400d8 	addiu	a0,sp,216
bfc042d0:	02402821 	move	a1,s2
bfc042d4:	02203021 	move	a2,s1
bfc042d8:	03a0f021 	move	s8,sp
bfc042dc:	03a0003e 	fst	sp
bfc042e0:	03e04009 	jalr	t0,ra
bfc042e4:	00000000 	nop
bfc042e8:	24050020 	li	a1,32
bfc042ec:	02253021 	addu	a2,s1,a1
bfc042f0:	8cc20000 	lw	v0,0(a2)
bfc042f4:	3c08bfc0 	lui	t0,0xbfc0
bfc042f8:	25087cbc 	addiu	t0,t0,31932
bfc042fc:	3c032000 	lui	v1,0x2000
bfc04300:	02402021 	move	a0,s2
bfc04304:	27a900d8 	addiu	t1,sp,216
bfc04308:	8d250000 	lw	a1,0(t1)
bfc0430c:	8d260004 	lw	a2,4(t1)
bfc04310:	8d270008 	lw	a3,8(t1)
bfc04314:	03a0f021 	move	s8,sp
bfc04318:	03a0003e 	fst	sp
bfc0431c:	27aa0000 	addiu	t2,sp,0
bfc04320:	8d29000c 	lw	t1,12(t1)
bfc04324:	ad49fffc 	sw	t1,-4(t2)
bfc04328:	afa2ffe8 	sw	v0,-24(sp)
bfc0432c:	afa3ffe4 	sw	v1,-28(sp)
bfc04330:	afb1ffe0 	sw	s1,-32(sp)
bfc04334:	03e04009 	jalr	t0,ra
bfc04338:	00000000 	nop
bfc0433c:	24090020 	li	t1,32
bfc04340:	02295021 	addu	t2,s1,t1
bfc04344:	ad420000 	sw	v0,0(t2)
bfc04348:	240b0084 	li	t3,132
bfc0434c:	024b6021 	addu	t4,s2,t3
bfc04350:	8d920000 	lw	s2,0(t4)
bfc04354:	240d0000 	li	t5,0
bfc04358:	024d7026 	xor	t6,s2,t5
bfc0435c:	000e702b 	sltu	t6,zero,t6
bfc04360:	15c0ffc0 	bnez	t6,bfc04264 <maketree+0xbc>
bfc04364:	00000000 	nop
bfc04368:	240fffff 	li	t7,-1
bfc0436c:	028fa021 	addu	s4,s4,t7
bfc04370:	0000c021 	move	t8,zero
bfc04374:	0298c82a 	slt	t9,s4,t8
bfc04378:	1320ffae 	beqz	t9,bfc04234 <maketree+0x8c>
bfc0437c:	00000000 	nop
bfc04380:	0bf010e5 	j	bfc04394 <maketree+0x1ec>
bfc04384:	00000000 	nop
bfc04388:	24040001 	li	a0,1
bfc0438c:	8f850564 	lw	a1,1380(gp)
bfc04390:	00a4a023 	subu	s4,a1,a0
bfc04394:	3c08bfc1 	lui	t0,0xbfc1
bfc04398:	25088c98 	addiu	t0,t0,-29544
bfc0439c:	24060020 	li	a2,32
bfc043a0:	02263821 	addu	a3,s1,a2
bfc043a4:	8ce40000 	lw	a0,0(a3)
bfc043a8:	03a0f021 	move	s8,sp
bfc043ac:	03a0003e 	fst	sp
bfc043b0:	03e04009 	jalr	t0,ra
bfc043b4:	00000000 	nop
bfc043b8:	24020020 	li	v0,32
bfc043bc:	02221821 	addu	v1,s1,v0
bfc043c0:	8c620000 	lw	v0,0(v1)
bfc043c4:	4bf010f2 	cqip	bfc043c8 <maketree+0x220>
bfc043c8:	53f010f2 	pslice_entry	bfc043c8 <maketree+0x220>
bfc043cc:	57f010f2 	pslice_exit	bfc043c8 <maketree+0x220>
bfc043d0:	8fbf0004 	lw	ra,4(sp)
bfc043d4:	8fb00008 	lw	s0,8(sp)
bfc043d8:	8fb1000c 	lw	s1,12(sp)
bfc043dc:	8fb20010 	lw	s2,16(sp)
bfc043e0:	8fb30014 	lw	s3,20(sp)
bfc043e4:	8fb40018 	lw	s4,24(sp)
bfc043e8:	8fbd0000 	lw	sp,0(sp)
bfc043ec:	03e00008 	jr	ra
bfc043f0:	00000000 	nop

bfc043f4 <vp>:
bfc043f4:	b3f0110b 	spawn	bfc0442c <vp+0x38>
bfc043f8:	27bdf760 	addiu	sp,sp,-2208
bfc043fc:	0000003f 	ust
bfc04400:	afbf0004 	sw	ra,4(sp)
bfc04404:	afb00008 	sw	s0,8(sp)
bfc04408:	afb1000c 	sw	s1,12(sp)
bfc0440c:	e7b40010 	swc1	$f20,16(sp)
bfc04410:	e7b50014 	swc1	$f21,20(sp)
bfc04414:	e7b60018 	swc1	$f22,24(sp)
bfc04418:	e7b7001c 	swc1	$f23,28(sp)
bfc0441c:	e7b80020 	swc1	$f24,32(sp)
bfc04420:	e7b90024 	swc1	$f25,36(sp)
bfc04424:	afbe0000 	sw	s8,0(sp)
bfc04428:	4bf0110b 	cqip	bfc0442c <vp+0x38>
bfc0442c:	53f0110b 	pslice_entry	bfc0442c <vp+0x38>
bfc04430:	27bdf760 	addiu	sp,sp,-2208
bfc04434:	57f0110b 	pslice_exit	bfc0442c <vp+0x38>
bfc04438:	b3f0147c 	spawn	bfc051f0 <vp+0xdfc>
bfc0443c:	00808821 	move	s1,a0
bfc04440:	00a08021 	move	s0,a1
bfc04444:	c79605e0 	lwc1	$f22,1504(gp)
bfc04448:	c79705e4 	lwc1	$f23,1508(gp)
bfc0444c:	24080000 	li	t0,0
bfc04450:	02284826 	xor	t1,s1,t0
bfc04454:	0009482b 	sltu	t1,zero,t1
bfc04458:	11200001 	beqz	t1,bfc04460 <vp+0x6c>
bfc0445c:	00000000 	nop
bfc04460:	240a0000 	li	t2,0
bfc04464:	022a5826 	xor	t3,s1,t2
bfc04468:	000b582b 	sltu	t3,zero,t3
bfc0446c:	1160035f 	beqz	t3,bfc051ec <vp+0xdf8>
bfc04470:	00000000 	nop
bfc04474:	00006021 	move	t4,zero
bfc04478:	27ad0878 	addiu	t5,sp,2168
bfc0447c:	240e0008 	li	t6,8
bfc04480:	018e0018 	mult	t4,t6
bfc04484:	00007812 	mflo	t7
bfc04488:	01afc021 	addu	t8,t5,t7
bfc0448c:	24190060 	li	t9,96
bfc04490:	02395021 	addu	t2,s1,t9
bfc04494:	24040008 	li	a0,8
bfc04498:	01840018 	mult	t4,a0
bfc0449c:	00002812 	mflo	a1
bfc044a0:	01453021 	addu	a2,t2,a1
bfc044a4:	c4cc0000 	lwc1	$f12,0(a2)
bfc044a8:	c4cd0004 	lwc1	$f13,4(a2)
bfc044ac:	e70c0000 	swc1	$f12,0(t8)
bfc044b0:	e70d0004 	swc1	$f13,4(t8)
bfc044b4:	24070001 	li	a3,1
bfc044b8:	01876021 	addu	t4,t4,a3
bfc044bc:	24020003 	li	v0,3
bfc044c0:	0182182a 	slt	v1,t4,v0
bfc044c4:	38630001 	xori	v1,v1,0x1
bfc044c8:	1060ffeb 	beqz	v1,bfc04478 <vp+0x84>
bfc044cc:	00000000 	nop
bfc044d0:	00004021 	move	t0,zero
bfc044d4:	0110482a 	slt	t1,t0,s0
bfc044d8:	1120006d 	beqz	t1,bfc04690 <vp+0x29c>
bfc044dc:	00000000 	nop
bfc044e0:	00005021 	move	t2,zero
bfc044e4:	27ab0860 	addiu	t3,sp,2144
bfc044e8:	240c0008 	li	t4,8
bfc044ec:	014c0018 	mult	t2,t4
bfc044f0:	00006812 	mflo	t5
bfc044f4:	016d7021 	addu	t6,t3,t5
bfc044f8:	27af0878 	addiu	t7,sp,2168
bfc044fc:	24180008 	li	t8,8
bfc04500:	01580018 	mult	t2,t8
bfc04504:	0000c812 	mflo	t9
bfc04508:	01f92021 	addu	a0,t7,t9
bfc0450c:	c48e0000 	lwc1	$f14,0(a0)
bfc04510:	c48f0004 	lwc1	$f15,4(a0)
bfc04514:	24050048 	li	a1,72
bfc04518:	02255821 	addu	t3,s1,a1
bfc0451c:	24060008 	li	a2,8
bfc04520:	01460018 	mult	t2,a2
bfc04524:	00003812 	mflo	a3
bfc04528:	01671021 	addu	v0,t3,a3
bfc0452c:	c4400000 	lwc1	$f0,0(v0)
bfc04530:	c4410004 	lwc1	$f1,4(v0)
bfc04534:	46207081 	sub.d	$f2,$f14,$f0
bfc04538:	e5c20000 	swc1	$f2,0(t6)
bfc0453c:	e5c30004 	swc1	$f3,4(t6)
bfc04540:	24030001 	li	v1,1
bfc04544:	01435021 	addu	t2,t2,v1
bfc04548:	24080003 	li	t0,3
bfc0454c:	0148482a 	slt	t1,t2,t0
bfc04550:	39290001 	xori	t1,t1,0x1
bfc04554:	1120ffe3 	beqz	t1,bfc044e4 <vp+0xf0>
bfc04558:	00000000 	nop
bfc0455c:	00005021 	move	t2,zero
bfc04560:	27ab0848 	addiu	t3,sp,2120
bfc04564:	240c0008 	li	t4,8
bfc04568:	014c0018 	mult	t2,t4
bfc0456c:	00006812 	mflo	t5
bfc04570:	016d7021 	addu	t6,t3,t5
bfc04574:	27af0860 	addiu	t7,sp,2144
bfc04578:	24180008 	li	t8,8
bfc0457c:	01580018 	mult	t2,t8
bfc04580:	0000c812 	mflo	t9
bfc04584:	01f92021 	addu	a0,t7,t9
bfc04588:	c4840000 	lwc1	$f4,0(a0)
bfc0458c:	c4850004 	lwc1	$f5,4(a0)
bfc04590:	46362182 	mul.d	$f6,$f4,$f22
bfc04594:	e5c60000 	swc1	$f6,0(t6)
bfc04598:	e5c70004 	swc1	$f7,4(t6)
bfc0459c:	24050001 	li	a1,1
bfc045a0:	01455021 	addu	t2,t2,a1
bfc045a4:	24060003 	li	a2,3
bfc045a8:	0146382a 	slt	a3,t2,a2
bfc045ac:	38e70001 	xori	a3,a3,0x1
bfc045b0:	10e0ffeb 	beqz	a3,bfc04560 <vp+0x16c>
bfc045b4:	00000000 	nop
bfc045b8:	00001021 	move	v0,zero
bfc045bc:	27a30848 	addiu	v1,sp,2120
bfc045c0:	24080008 	li	t0,8
bfc045c4:	00480018 	mult	v0,t0
bfc045c8:	00004812 	mflo	t1
bfc045cc:	00695021 	addu	t2,v1,t1
bfc045d0:	240b0030 	li	t3,48
bfc045d4:	022b6021 	addu	t4,s1,t3
bfc045d8:	240d0008 	li	t5,8
bfc045dc:	004d0018 	mult	v0,t5
bfc045e0:	00006812 	mflo	t5
bfc045e4:	018d7021 	addu	t6,t4,t5
bfc045e8:	c5c80000 	lwc1	$f8,0(t6)
bfc045ec:	c5c90004 	lwc1	$f9,4(t6)
bfc045f0:	27af0848 	addiu	t7,sp,2120
bfc045f4:	24180008 	li	t8,8
bfc045f8:	00580018 	mult	v0,t8
bfc045fc:	0000c812 	mflo	t9
bfc04600:	01f92021 	addu	a0,t7,t9
bfc04604:	c48a0000 	lwc1	$f10,0(a0)
bfc04608:	c48b0004 	lwc1	$f11,4(a0)
bfc0460c:	462a4400 	add.d	$f16,$f8,$f10
bfc04610:	e5500000 	swc1	$f16,0(t2)
bfc04614:	e5510004 	swc1	$f17,4(t2)
bfc04618:	24050001 	li	a1,1
bfc0461c:	00451021 	addu	v0,v0,a1
bfc04620:	24060003 	li	a2,3
bfc04624:	0046382a 	slt	a3,v0,a2
bfc04628:	38e70001 	xori	a3,a3,0x1
bfc0462c:	10e0ffe3 	beqz	a3,bfc045bc <vp+0x1c8>
bfc04630:	00000000 	nop
bfc04634:	00001021 	move	v0,zero
bfc04638:	24030030 	li	v1,48
bfc0463c:	02236821 	addu	t5,s1,v1
bfc04640:	24080008 	li	t0,8
bfc04644:	00480018 	mult	v0,t0
bfc04648:	00004812 	mflo	t1
bfc0464c:	01a95021 	addu	t2,t5,t1
bfc04650:	27ab0848 	addiu	t3,sp,2120
bfc04654:	240c0008 	li	t4,8
bfc04658:	004c0018 	mult	v0,t4
bfc0465c:	00006812 	mflo	t5
bfc04660:	016d7021 	addu	t6,t3,t5
bfc04664:	c5d20000 	lwc1	$f18,0(t6)
bfc04668:	c5d30004 	lwc1	$f19,4(t6)
bfc0466c:	e5520000 	swc1	$f18,0(t2)
bfc04670:	e5530004 	swc1	$f19,4(t2)
bfc04674:	240f0001 	li	t7,1
bfc04678:	004f1021 	addu	v0,v0,t7
bfc0467c:	24180003 	li	t8,3
bfc04680:	0058c82a 	slt	t9,v0,t8
bfc04684:	3b390001 	xori	t9,t9,0x1
bfc04688:	1320ffeb 	beqz	t9,bfc04638 <vp+0x244>
bfc0468c:	00000000 	nop
bfc04690:	24040010 	li	a0,16
bfc04694:	02247021 	addu	t6,s1,a0
bfc04698:	c5c80000 	lwc1	$f8,0(t6)
bfc0469c:	c5c90004 	lwc1	$f9,4(t6)
bfc046a0:	24050018 	li	a1,24
bfc046a4:	02253021 	addu	a2,s1,a1
bfc046a8:	c4d40000 	lwc1	$f20,0(a2)
bfc046ac:	c4d50004 	lwc1	$f21,4(a2)
bfc046b0:	24070020 	li	a3,32
bfc046b4:	02271021 	addu	v0,s1,a3
bfc046b8:	c4580000 	lwc1	$f24,0(v0)
bfc046bc:	c4590004 	lwc1	$f25,4(v0)
bfc046c0:	24010000 	li	at,0
bfc046c4:	44816800 	mtc1	at,$f13
bfc046c8:	44806000 	mtc1	zero,$f12
bfc046cc:	24030001 	li	v1,1
bfc046d0:	4628603c 	c.lt.d	$f12,$f8
bfc046d4:	45010002 	bc1t	bfc046e0 <vp+0x2ec>
bfc046d8:	00000000 	nop
bfc046dc:	00001821 	move	v1,zero
bfc046e0:	10600003 	beqz	v1,bfc046f0 <vp+0x2fc>
bfc046e4:	00000000 	nop
bfc046e8:	0bf011bd 	j	bfc046f4 <vp+0x300>
bfc046ec:	00000000 	nop
bfc046f0:	46204207 	neg.d	$f8,$f8
bfc046f4:	3c014024 	lui	at,0x4024
bfc046f8:	44817800 	mtc1	at,$f15
bfc046fc:	44807000 	mtc1	zero,$f14
bfc04700:	24080001 	li	t0,1
bfc04704:	462e403c 	c.lt.d	$f8,$f14
bfc04708:	45010002 	bc1t	bfc04714 <vp+0x320>
bfc0470c:	00000000 	nop
bfc04710:	00004021 	move	t0,zero
bfc04714:	00004821 	move	t1,zero
bfc04718:	01095026 	xor	t2,t0,t1
bfc0471c:	2d4a0001 	sltiu	t2,t2,1
bfc04720:	11400010 	beqz	t2,bfc04764 <vp+0x370>
bfc04724:	00000000 	nop
bfc04728:	3c08bfc0 	lui	t0,0xbfc0
bfc0472c:	250803fc 	addiu	t0,t0,1020
bfc04730:	27840527 	addiu	a0,gp,1319
bfc04734:	24050060 	li	a1,96
bfc04738:	03a0f021 	move	s8,sp
bfc0473c:	03a0003e 	fst	sp
bfc04740:	03e04009 	jalr	t0,ra
bfc04744:	00000000 	nop
bfc04748:	3c08bfc0 	lui	t0,0xbfc0
bfc0474c:	2508045c 	addiu	t0,t0,1116
bfc04750:	00002021 	move	a0,zero
bfc04754:	03a0f021 	move	s8,sp
bfc04758:	03a0003e 	fst	sp
bfc0475c:	03e04009 	jalr	t0,ra
bfc04760:	00000000 	nop
bfc04764:	24010000 	li	at,0
bfc04768:	44810800 	mtc1	at,$f1
bfc0476c:	44800000 	mtc1	zero,$f0
bfc04770:	240b0001 	li	t3,1
bfc04774:	4634003c 	c.lt.d	$f0,$f20
bfc04778:	45010002 	bc1t	bfc04784 <vp+0x390>
bfc0477c:	00000000 	nop
bfc04780:	00005821 	move	t3,zero
bfc04784:	11600003 	beqz	t3,bfc04794 <vp+0x3a0>
bfc04788:	00000000 	nop
bfc0478c:	0bf011e6 	j	bfc04798 <vp+0x3a4>
bfc04790:	00000000 	nop
bfc04794:	4620a507 	neg.d	$f20,$f20
bfc04798:	3c014024 	lui	at,0x4024
bfc0479c:	44811800 	mtc1	at,$f3
bfc047a0:	44801000 	mtc1	zero,$f2
bfc047a4:	240c0001 	li	t4,1
bfc047a8:	4622a03c 	c.lt.d	$f20,$f2
bfc047ac:	45010002 	bc1t	bfc047b8 <vp+0x3c4>
bfc047b0:	00000000 	nop
bfc047b4:	00006021 	move	t4,zero
bfc047b8:	00006821 	move	t5,zero
bfc047bc:	018d7026 	xor	t6,t4,t5
bfc047c0:	2dce0001 	sltiu	t6,t6,1
bfc047c4:	11c00010 	beqz	t6,bfc04808 <vp+0x414>
bfc047c8:	00000000 	nop
bfc047cc:	3c08bfc0 	lui	t0,0xbfc0
bfc047d0:	250803fc 	addiu	t0,t0,1020
bfc047d4:	27840527 	addiu	a0,gp,1319
bfc047d8:	2405005f 	li	a1,95
bfc047dc:	03a0f021 	move	s8,sp
bfc047e0:	03a0003e 	fst	sp
bfc047e4:	03e04009 	jalr	t0,ra
bfc047e8:	00000000 	nop
bfc047ec:	3c08bfc0 	lui	t0,0xbfc0
bfc047f0:	2508045c 	addiu	t0,t0,1116
bfc047f4:	00002021 	move	a0,zero
bfc047f8:	03a0f021 	move	s8,sp
bfc047fc:	03a0003e 	fst	sp
bfc04800:	03e04009 	jalr	t0,ra
bfc04804:	00000000 	nop
bfc04808:	24010000 	li	at,0
bfc0480c:	44812800 	mtc1	at,$f5
bfc04810:	44802000 	mtc1	zero,$f4
bfc04814:	240f0001 	li	t7,1
bfc04818:	4638203c 	c.lt.d	$f4,$f24
bfc0481c:	45010002 	bc1t	bfc04828 <vp+0x434>
bfc04820:	00000000 	nop
bfc04824:	00007821 	move	t7,zero
bfc04828:	11e00003 	beqz	t7,bfc04838 <vp+0x444>
bfc0482c:	00000000 	nop
bfc04830:	0bf0120f 	j	bfc0483c <vp+0x448>
bfc04834:	00000000 	nop
bfc04838:	4620c607 	neg.d	$f24,$f24
bfc0483c:	3c014024 	lui	at,0x4024
bfc04840:	44813800 	mtc1	at,$f7
bfc04844:	44803000 	mtc1	zero,$f6
bfc04848:	24180001 	li	t8,1
bfc0484c:	4626c03c 	c.lt.d	$f24,$f6
bfc04850:	45010002 	bc1t	bfc0485c <vp+0x468>
bfc04854:	00000000 	nop
bfc04858:	0000c021 	move	t8,zero
bfc0485c:	0000c821 	move	t9,zero
bfc04860:	03192026 	xor	a0,t8,t9
bfc04864:	2c840001 	sltiu	a0,a0,1
bfc04868:	10800010 	beqz	a0,bfc048ac <vp+0x4b8>
bfc0486c:	00000000 	nop
bfc04870:	3c08bfc0 	lui	t0,0xbfc0
bfc04874:	250803fc 	addiu	t0,t0,1020
bfc04878:	27840527 	addiu	a0,gp,1319
bfc0487c:	2405005e 	li	a1,94
bfc04880:	03a0f021 	move	s8,sp
bfc04884:	03a0003e 	fst	sp
bfc04888:	03e04009 	jalr	t0,ra
bfc0488c:	00000000 	nop
bfc04890:	3c08bfc0 	lui	t0,0xbfc0
bfc04894:	2508045c 	addiu	t0,t0,1116
bfc04898:	00002021 	move	a0,zero
bfc0489c:	03a0f021 	move	s8,sp
bfc048a0:	03a0003e 	fst	sp
bfc048a4:	03e04009 	jalr	t0,ra
bfc048a8:	00000000 	nop
bfc048ac:	00002821 	move	a1,zero
bfc048b0:	24060048 	li	a2,72
bfc048b4:	02267821 	addu	t7,s1,a2
bfc048b8:	24070008 	li	a3,8
bfc048bc:	00a70018 	mult	a1,a3
bfc048c0:	00001012 	mflo	v0
bfc048c4:	01e21821 	addu	v1,t7,v0
bfc048c8:	27a80878 	addiu	t0,sp,2168
bfc048cc:	24090008 	li	t1,8
bfc048d0:	00a90018 	mult	a1,t1
bfc048d4:	00005012 	mflo	t2
bfc048d8:	010a5821 	addu	t3,t0,t2
bfc048dc:	c5680000 	lwc1	$f8,0(t3)
bfc048e0:	c5690004 	lwc1	$f9,4(t3)
bfc048e4:	e4680000 	swc1	$f8,0(v1)
bfc048e8:	e4690004 	swc1	$f9,4(v1)
bfc048ec:	240c0001 	li	t4,1
bfc048f0:	00ac2821 	addu	a1,a1,t4
bfc048f4:	240d0003 	li	t5,3
bfc048f8:	00ad702a 	slt	t6,a1,t5
bfc048fc:	39ce0001 	xori	t6,t6,0x1
bfc04900:	11c0ffeb 	beqz	t6,bfc048b0 <vp+0x4bc>
bfc04904:	00000000 	nop
bfc04908:	240f0048 	li	t7,72
bfc0490c:	022fc021 	addu	t8,s1,t7
bfc04910:	c70a0000 	lwc1	$f10,0(t8)
bfc04914:	c70b0004 	lwc1	$f11,4(t8)
bfc04918:	24180050 	li	t8,80
bfc0491c:	0238c821 	addu	t9,s1,t8
bfc04920:	c7340000 	lwc1	$f20,0(t9)
bfc04924:	c7350004 	lwc1	$f21,4(t9)
bfc04928:	24040058 	li	a0,88
bfc0492c:	02242821 	addu	a1,s1,a0
bfc04930:	c4b80000 	lwc1	$f24,0(a1)
bfc04934:	c4b90004 	lwc1	$f25,4(a1)
bfc04938:	24010000 	li	at,0
bfc0493c:	44818800 	mtc1	at,$f17
bfc04940:	44808000 	mtc1	zero,$f16
bfc04944:	24060001 	li	a2,1
bfc04948:	462a803c 	c.lt.d	$f16,$f10
bfc0494c:	45010002 	bc1t	bfc04958 <vp+0x564>
bfc04950:	00000000 	nop
bfc04954:	00003021 	move	a2,zero
bfc04958:	10c00003 	beqz	a2,bfc04968 <vp+0x574>
bfc0495c:	00000000 	nop
bfc04960:	0bf0125b 	j	bfc0496c <vp+0x578>
bfc04964:	00000000 	nop
bfc04968:	46205287 	neg.d	$f10,$f10
bfc0496c:	c79005e8 	lwc1	$f16,1512(gp)
bfc04970:	c79105ec 	lwc1	$f17,1516(gp)
bfc04974:	24070001 	li	a3,1
bfc04978:	4630503c 	c.lt.d	$f10,$f16
bfc0497c:	45010002 	bc1t	bfc04988 <vp+0x594>
bfc04980:	00000000 	nop
bfc04984:	00003821 	move	a3,zero
bfc04988:	00001021 	move	v0,zero
bfc0498c:	00e21826 	xor	v1,a3,v0
bfc04990:	2c630001 	sltiu	v1,v1,1
bfc04994:	10600010 	beqz	v1,bfc049d8 <vp+0x5e4>
bfc04998:	00000000 	nop
bfc0499c:	3c08bfc0 	lui	t0,0xbfc0
bfc049a0:	250803fc 	addiu	t0,t0,1020
bfc049a4:	27840527 	addiu	a0,gp,1319
bfc049a8:	24050056 	li	a1,86
bfc049ac:	03a0f021 	move	s8,sp
bfc049b0:	03a0003e 	fst	sp
bfc049b4:	03e04009 	jalr	t0,ra
bfc049b8:	00000000 	nop
bfc049bc:	3c08bfc0 	lui	t0,0xbfc0
bfc049c0:	2508045c 	addiu	t0,t0,1116
bfc049c4:	00002021 	move	a0,zero
bfc049c8:	03a0f021 	move	s8,sp
bfc049cc:	03a0003e 	fst	sp
bfc049d0:	03e04009 	jalr	t0,ra
bfc049d4:	00000000 	nop
bfc049d8:	24010000 	li	at,0
bfc049dc:	44819800 	mtc1	at,$f19
bfc049e0:	44809000 	mtc1	zero,$f18
bfc049e4:	24080001 	li	t0,1
bfc049e8:	4634903c 	c.lt.d	$f18,$f20
bfc049ec:	45010002 	bc1t	bfc049f8 <vp+0x604>
bfc049f0:	00000000 	nop
bfc049f4:	00004021 	move	t0,zero
bfc049f8:	11000003 	beqz	t0,bfc04a08 <vp+0x614>
bfc049fc:	00000000 	nop
bfc04a00:	0bf01283 	j	bfc04a0c <vp+0x618>
bfc04a04:	00000000 	nop
bfc04a08:	4620a507 	neg.d	$f20,$f20
bfc04a0c:	c78c05f0 	lwc1	$f12,1520(gp)
bfc04a10:	c78d05f4 	lwc1	$f13,1524(gp)
bfc04a14:	24090001 	li	t1,1
bfc04a18:	462ca03c 	c.lt.d	$f20,$f12
bfc04a1c:	45010002 	bc1t	bfc04a28 <vp+0x634>
bfc04a20:	00000000 	nop
bfc04a24:	00004821 	move	t1,zero
bfc04a28:	00005021 	move	t2,zero
bfc04a2c:	012a5826 	xor	t3,t1,t2
bfc04a30:	2d6b0001 	sltiu	t3,t3,1
bfc04a34:	11600010 	beqz	t3,bfc04a78 <vp+0x684>
bfc04a38:	00000000 	nop
bfc04a3c:	3c08bfc0 	lui	t0,0xbfc0
bfc04a40:	250803fc 	addiu	t0,t0,1020
bfc04a44:	27840527 	addiu	a0,gp,1319
bfc04a48:	24050055 	li	a1,85
bfc04a4c:	03a0f021 	move	s8,sp
bfc04a50:	03a0003e 	fst	sp
bfc04a54:	03e04009 	jalr	t0,ra
bfc04a58:	00000000 	nop
bfc04a5c:	3c08bfc0 	lui	t0,0xbfc0
bfc04a60:	2508045c 	addiu	t0,t0,1116
bfc04a64:	00002021 	move	a0,zero
bfc04a68:	03a0f021 	move	s8,sp
bfc04a6c:	03a0003e 	fst	sp
bfc04a70:	03e04009 	jalr	t0,ra
bfc04a74:	00000000 	nop
bfc04a78:	24010000 	li	at,0
bfc04a7c:	44817800 	mtc1	at,$f15
bfc04a80:	44807000 	mtc1	zero,$f14
bfc04a84:	240c0001 	li	t4,1
bfc04a88:	4638703c 	c.lt.d	$f14,$f24
bfc04a8c:	45010002 	bc1t	bfc04a98 <vp+0x6a4>
bfc04a90:	00000000 	nop
bfc04a94:	00006021 	move	t4,zero
bfc04a98:	11800003 	beqz	t4,bfc04aa8 <vp+0x6b4>
bfc04a9c:	00000000 	nop
bfc04aa0:	0bf012ab 	j	bfc04aac <vp+0x6b8>
bfc04aa4:	00000000 	nop
bfc04aa8:	4620c607 	neg.d	$f24,$f24
bfc04aac:	c78005f8 	lwc1	$f0,1528(gp)
bfc04ab0:	c78105fc 	lwc1	$f1,1532(gp)
bfc04ab4:	240d0001 	li	t5,1
bfc04ab8:	4620c03c 	c.lt.d	$f24,$f0
bfc04abc:	45010002 	bc1t	bfc04ac8 <vp+0x6d4>
bfc04ac0:	00000000 	nop
bfc04ac4:	00006821 	move	t5,zero
bfc04ac8:	00007021 	move	t6,zero
bfc04acc:	01ae7826 	xor	t7,t5,t6
bfc04ad0:	2def0001 	sltiu	t7,t7,1
bfc04ad4:	11e00010 	beqz	t7,bfc04b18 <vp+0x724>
bfc04ad8:	00000000 	nop
bfc04adc:	3c08bfc0 	lui	t0,0xbfc0
bfc04ae0:	250803fc 	addiu	t0,t0,1020
bfc04ae4:	27840527 	addiu	a0,gp,1319
bfc04ae8:	24050054 	li	a1,84
bfc04aec:	03a0f021 	move	s8,sp
bfc04af0:	03a0003e 	fst	sp
bfc04af4:	03e04009 	jalr	t0,ra
bfc04af8:	00000000 	nop
bfc04afc:	3c08bfc0 	lui	t0,0xbfc0
bfc04b00:	2508045c 	addiu	t0,t0,1116
bfc04b04:	00002021 	move	a0,zero
bfc04b08:	03a0f021 	move	s8,sp
bfc04b0c:	03a0003e 	fst	sp
bfc04b10:	03e04009 	jalr	t0,ra
bfc04b14:	00000000 	nop
bfc04b18:	0000c021 	move	t8,zero
bfc04b1c:	27b90848 	addiu	t9,sp,2120
bfc04b20:	24040008 	li	a0,8
bfc04b24:	03040018 	mult	t8,a0
bfc04b28:	00002812 	mflo	a1
bfc04b2c:	03253021 	addu	a2,t9,a1
bfc04b30:	24070048 	li	a3,72
bfc04b34:	0227c821 	addu	t9,s1,a3
bfc04b38:	24020008 	li	v0,8
bfc04b3c:	03020018 	mult	t8,v0
bfc04b40:	00001812 	mflo	v1
bfc04b44:	03234021 	addu	t0,t9,v1
bfc04b48:	c5020000 	lwc1	$f2,0(t0)
bfc04b4c:	c5030004 	lwc1	$f3,4(t0)
bfc04b50:	46361102 	mul.d	$f4,$f2,$f22
bfc04b54:	e4c40000 	swc1	$f4,0(a2)
bfc04b58:	e4c50004 	swc1	$f5,4(a2)
bfc04b5c:	24090001 	li	t1,1
bfc04b60:	0309c021 	addu	t8,t8,t1
bfc04b64:	240a0003 	li	t2,3
bfc04b68:	030a582a 	slt	t3,t8,t2
bfc04b6c:	396b0001 	xori	t3,t3,0x1
bfc04b70:	1160ffea 	beqz	t3,bfc04b1c <vp+0x728>
bfc04b74:	00000000 	nop
bfc04b78:	240c0030 	li	t4,48
bfc04b7c:	022c2021 	addu	a0,s1,t4
bfc04b80:	c4900000 	lwc1	$f16,0(a0)
bfc04b84:	c4910004 	lwc1	$f17,4(a0)
bfc04b88:	240d0038 	li	t5,56
bfc04b8c:	022d7021 	addu	t6,s1,t5
bfc04b90:	c5d40000 	lwc1	$f20,0(t6)
bfc04b94:	c5d50004 	lwc1	$f21,4(t6)
bfc04b98:	240f0040 	li	t7,64
bfc04b9c:	022fc021 	addu	t8,s1,t7
bfc04ba0:	c7180000 	lwc1	$f24,0(t8)
bfc04ba4:	c7190004 	lwc1	$f25,4(t8)
bfc04ba8:	24010000 	li	at,0
bfc04bac:	44813800 	mtc1	at,$f7
bfc04bb0:	44803000 	mtc1	zero,$f6
bfc04bb4:	24190001 	li	t9,1
bfc04bb8:	4630303c 	c.lt.d	$f6,$f16
bfc04bbc:	45010002 	bc1t	bfc04bc8 <vp+0x7d4>
bfc04bc0:	00000000 	nop
bfc04bc4:	0000c821 	move	t9,zero
bfc04bc8:	13200003 	beqz	t9,bfc04bd8 <vp+0x7e4>
bfc04bcc:	00000000 	nop
bfc04bd0:	0bf012f7 	j	bfc04bdc <vp+0x7e8>
bfc04bd4:	00000000 	nop
bfc04bd8:	46208407 	neg.d	$f16,$f16
bfc04bdc:	c7880600 	lwc1	$f8,1536(gp)
bfc04be0:	c7890604 	lwc1	$f9,1540(gp)
bfc04be4:	24040001 	li	a0,1
bfc04be8:	4628803c 	c.lt.d	$f16,$f8
bfc04bec:	45010002 	bc1t	bfc04bf8 <vp+0x804>
bfc04bf0:	00000000 	nop
bfc04bf4:	00002021 	move	a0,zero
bfc04bf8:	00002821 	move	a1,zero
bfc04bfc:	00853026 	xor	a2,a0,a1
bfc04c00:	2cc60001 	sltiu	a2,a2,1
bfc04c04:	10c00010 	beqz	a2,bfc04c48 <vp+0x854>
bfc04c08:	00000000 	nop
bfc04c0c:	3c08bfc0 	lui	t0,0xbfc0
bfc04c10:	250803fc 	addiu	t0,t0,1020
bfc04c14:	27840527 	addiu	a0,gp,1319
bfc04c18:	2405004c 	li	a1,76
bfc04c1c:	03a0f021 	move	s8,sp
bfc04c20:	03a0003e 	fst	sp
bfc04c24:	03e04009 	jalr	t0,ra
bfc04c28:	00000000 	nop
bfc04c2c:	3c08bfc0 	lui	t0,0xbfc0
bfc04c30:	2508045c 	addiu	t0,t0,1116
bfc04c34:	00002021 	move	a0,zero
bfc04c38:	03a0f021 	move	s8,sp
bfc04c3c:	03a0003e 	fst	sp
bfc04c40:	03e04009 	jalr	t0,ra
bfc04c44:	00000000 	nop
bfc04c48:	24010000 	li	at,0
bfc04c4c:	44815800 	mtc1	at,$f11
bfc04c50:	44805000 	mtc1	zero,$f10
bfc04c54:	24070001 	li	a3,1
bfc04c58:	4634503c 	c.lt.d	$f10,$f20
bfc04c5c:	45010002 	bc1t	bfc04c68 <vp+0x874>
bfc04c60:	00000000 	nop
bfc04c64:	00003821 	move	a3,zero
bfc04c68:	10e00003 	beqz	a3,bfc04c78 <vp+0x884>
bfc04c6c:	00000000 	nop
bfc04c70:	0bf0131f 	j	bfc04c7c <vp+0x888>
bfc04c74:	00000000 	nop
bfc04c78:	4620a507 	neg.d	$f20,$f20
bfc04c7c:	c7900608 	lwc1	$f16,1544(gp)
bfc04c80:	c791060c 	lwc1	$f17,1548(gp)
bfc04c84:	24020001 	li	v0,1
bfc04c88:	4630a03c 	c.lt.d	$f20,$f16
bfc04c8c:	45010002 	bc1t	bfc04c98 <vp+0x8a4>
bfc04c90:	00000000 	nop
bfc04c94:	00001021 	move	v0,zero
bfc04c98:	00001821 	move	v1,zero
bfc04c9c:	00434026 	xor	t0,v0,v1
bfc04ca0:	2d080001 	sltiu	t0,t0,1
bfc04ca4:	11000010 	beqz	t0,bfc04ce8 <vp+0x8f4>
bfc04ca8:	00000000 	nop
bfc04cac:	3c08bfc0 	lui	t0,0xbfc0
bfc04cb0:	250803fc 	addiu	t0,t0,1020
bfc04cb4:	27840527 	addiu	a0,gp,1319
bfc04cb8:	2405004b 	li	a1,75
bfc04cbc:	03a0f021 	move	s8,sp
bfc04cc0:	03a0003e 	fst	sp
bfc04cc4:	03e04009 	jalr	t0,ra
bfc04cc8:	00000000 	nop
bfc04ccc:	3c08bfc0 	lui	t0,0xbfc0
bfc04cd0:	2508045c 	addiu	t0,t0,1116
bfc04cd4:	00002021 	move	a0,zero
bfc04cd8:	03a0f021 	move	s8,sp
bfc04cdc:	03a0003e 	fst	sp
bfc04ce0:	03e04009 	jalr	t0,ra
bfc04ce4:	00000000 	nop
bfc04ce8:	24010000 	li	at,0
bfc04cec:	44819800 	mtc1	at,$f19
bfc04cf0:	44809000 	mtc1	zero,$f18
bfc04cf4:	24090001 	li	t1,1
bfc04cf8:	4638903c 	c.lt.d	$f18,$f24
bfc04cfc:	45010002 	bc1t	bfc04d08 <vp+0x914>
bfc04d00:	00000000 	nop
bfc04d04:	00004821 	move	t1,zero
bfc04d08:	11200003 	beqz	t1,bfc04d18 <vp+0x924>
bfc04d0c:	00000000 	nop
bfc04d10:	0bf01347 	j	bfc04d1c <vp+0x928>
bfc04d14:	00000000 	nop
bfc04d18:	4620c607 	neg.d	$f24,$f24
bfc04d1c:	c78c0610 	lwc1	$f12,1552(gp)
bfc04d20:	c78d0614 	lwc1	$f13,1556(gp)
bfc04d24:	240a0001 	li	t2,1
bfc04d28:	462cc03c 	c.lt.d	$f24,$f12
bfc04d2c:	45010002 	bc1t	bfc04d38 <vp+0x944>
bfc04d30:	00000000 	nop
bfc04d34:	00005021 	move	t2,zero
bfc04d38:	00005821 	move	t3,zero
bfc04d3c:	014b6026 	xor	t4,t2,t3
bfc04d40:	2d8c0001 	sltiu	t4,t4,1
bfc04d44:	11800010 	beqz	t4,bfc04d88 <vp+0x994>
bfc04d48:	00000000 	nop
bfc04d4c:	3c08bfc0 	lui	t0,0xbfc0
bfc04d50:	250803fc 	addiu	t0,t0,1020
bfc04d54:	27840527 	addiu	a0,gp,1319
bfc04d58:	2405004a 	li	a1,74
bfc04d5c:	03a0f021 	move	s8,sp
bfc04d60:	03a0003e 	fst	sp
bfc04d64:	03e04009 	jalr	t0,ra
bfc04d68:	00000000 	nop
bfc04d6c:	3c08bfc0 	lui	t0,0xbfc0
bfc04d70:	2508045c 	addiu	t0,t0,1116
bfc04d74:	00002021 	move	a0,zero
bfc04d78:	03a0f021 	move	s8,sp
bfc04d7c:	03a0003e 	fst	sp
bfc04d80:	03e04009 	jalr	t0,ra
bfc04d84:	00000000 	nop
bfc04d88:	00006821 	move	t5,zero
bfc04d8c:	27ae0830 	addiu	t6,sp,2096
bfc04d90:	240f0008 	li	t7,8
bfc04d94:	01af0018 	mult	t5,t7
bfc04d98:	0000c012 	mflo	t8
bfc04d9c:	01d8c821 	addu	t9,t6,t8
bfc04da0:	24040030 	li	a0,48
bfc04da4:	02242821 	addu	a1,s1,a0
bfc04da8:	24060008 	li	a2,8
bfc04dac:	01a60018 	mult	t5,a2
bfc04db0:	00003012 	mflo	a2
bfc04db4:	00a63821 	addu	a3,a1,a2
bfc04db8:	c4ee0000 	lwc1	$f14,0(a3)
bfc04dbc:	c4ef0004 	lwc1	$f15,4(a3)
bfc04dc0:	27a20848 	addiu	v0,sp,2120
bfc04dc4:	24030008 	li	v1,8
bfc04dc8:	01a30018 	mult	t5,v1
bfc04dcc:	00004012 	mflo	t0
bfc04dd0:	00484821 	addu	t1,v0,t0
bfc04dd4:	c5200000 	lwc1	$f0,0(t1)
bfc04dd8:	c5210004 	lwc1	$f1,4(t1)
bfc04ddc:	46207080 	add.d	$f2,$f14,$f0
bfc04de0:	e7220000 	swc1	$f2,0(t9)
bfc04de4:	e7230004 	swc1	$f3,4(t9)
bfc04de8:	240a0001 	li	t2,1
bfc04dec:	01aa6821 	addu	t5,t5,t2
bfc04df0:	240b0003 	li	t3,3
bfc04df4:	01ab602a 	slt	t4,t5,t3
bfc04df8:	398c0001 	xori	t4,t4,0x1
bfc04dfc:	1180ffe3 	beqz	t4,bfc04d8c <vp+0x998>
bfc04e00:	00000000 	nop
bfc04e04:	00006821 	move	t5,zero
bfc04e08:	27ae0818 	addiu	t6,sp,2072
bfc04e0c:	240f0008 	li	t7,8
bfc04e10:	01af0018 	mult	t5,t7
bfc04e14:	0000c012 	mflo	t8
bfc04e18:	01d8c821 	addu	t9,t6,t8
bfc04e1c:	27a40830 	addiu	a0,sp,2096
bfc04e20:	24050008 	li	a1,8
bfc04e24:	01a50018 	mult	t5,a1
bfc04e28:	00003012 	mflo	a2
bfc04e2c:	00863821 	addu	a3,a0,a2
bfc04e30:	c4e40000 	lwc1	$f4,0(a3)
bfc04e34:	c4e50004 	lwc1	$f5,4(a3)
bfc04e38:	c7860618 	lwc1	$f6,1560(gp)
bfc04e3c:	c787061c 	lwc1	$f7,1564(gp)
bfc04e40:	46262202 	mul.d	$f8,$f4,$f6
bfc04e44:	e7280000 	swc1	$f8,0(t9)
bfc04e48:	e7290004 	swc1	$f9,4(t9)
bfc04e4c:	24020001 	li	v0,1
bfc04e50:	01a26821 	addu	t5,t5,v0
bfc04e54:	24030003 	li	v1,3
bfc04e58:	01a3402a 	slt	t0,t5,v1
bfc04e5c:	39080001 	xori	t0,t0,0x1
bfc04e60:	1100ffe9 	beqz	t0,bfc04e08 <vp+0xa14>
bfc04e64:	00000000 	nop
bfc04e68:	00004821 	move	t1,zero
bfc04e6c:	27aa0818 	addiu	t2,sp,2072
bfc04e70:	240b0008 	li	t3,8
bfc04e74:	012b0018 	mult	t1,t3
bfc04e78:	00006012 	mflo	t4
bfc04e7c:	014c6821 	addu	t5,t2,t4
bfc04e80:	240e0010 	li	t6,16
bfc04e84:	022e3021 	addu	a2,s1,t6
bfc04e88:	240f0008 	li	t7,8
bfc04e8c:	012f0018 	mult	t1,t7
bfc04e90:	0000c012 	mflo	t8
bfc04e94:	00d8c821 	addu	t9,a2,t8
bfc04e98:	c72a0000 	lwc1	$f10,0(t9)
bfc04e9c:	c72b0004 	lwc1	$f11,4(t9)
bfc04ea0:	27a40818 	addiu	a0,sp,2072
bfc04ea4:	24050008 	li	a1,8
bfc04ea8:	01250018 	mult	t1,a1
bfc04eac:	00003012 	mflo	a2
bfc04eb0:	00863821 	addu	a3,a0,a2
bfc04eb4:	c4f00000 	lwc1	$f16,0(a3)
bfc04eb8:	c4f10004 	lwc1	$f17,4(a3)
bfc04ebc:	46305480 	add.d	$f18,$f10,$f16
bfc04ec0:	e5b20000 	swc1	$f18,0(t5)
bfc04ec4:	e5b30004 	swc1	$f19,4(t5)
bfc04ec8:	24020001 	li	v0,1
bfc04ecc:	01224821 	addu	t1,t1,v0
bfc04ed0:	24030003 	li	v1,3
bfc04ed4:	0123402a 	slt	t0,t1,v1
bfc04ed8:	39080001 	xori	t0,t0,0x1
bfc04edc:	1100ffe3 	beqz	t0,bfc04e6c <vp+0xa78>
bfc04ee0:	00000000 	nop
bfc04ee4:	00004821 	move	t1,zero
bfc04ee8:	240a0010 	li	t2,16
bfc04eec:	022a3821 	addu	a3,s1,t2
bfc04ef0:	240b0008 	li	t3,8
bfc04ef4:	012b0018 	mult	t1,t3
bfc04ef8:	00006012 	mflo	t4
bfc04efc:	00ec6821 	addu	t5,a3,t4
bfc04f00:	27ae0818 	addiu	t6,sp,2072
bfc04f04:	240f0008 	li	t7,8
bfc04f08:	012f0018 	mult	t1,t7
bfc04f0c:	0000c012 	mflo	t8
bfc04f10:	01d8c821 	addu	t9,t6,t8
bfc04f14:	c72c0000 	lwc1	$f12,0(t9)
bfc04f18:	c72d0004 	lwc1	$f13,4(t9)
bfc04f1c:	e5ac0000 	swc1	$f12,0(t5)
bfc04f20:	e5ad0004 	swc1	$f13,4(t5)
bfc04f24:	24040001 	li	a0,1
bfc04f28:	01244821 	addu	t1,t1,a0
bfc04f2c:	24050003 	li	a1,3
bfc04f30:	0125302a 	slt	a2,t1,a1
bfc04f34:	38c60001 	xori	a2,a2,0x1
bfc04f38:	10c0ffeb 	beqz	a2,bfc04ee8 <vp+0xaf4>
bfc04f3c:	00000000 	nop
bfc04f40:	00003821 	move	a3,zero
bfc04f44:	24020030 	li	v0,48
bfc04f48:	02221021 	addu	v0,s1,v0
bfc04f4c:	24030008 	li	v1,8
bfc04f50:	00e30018 	mult	a3,v1
bfc04f54:	00004012 	mflo	t0
bfc04f58:	00484821 	addu	t1,v0,t0
bfc04f5c:	27aa0830 	addiu	t2,sp,2096
bfc04f60:	240b0008 	li	t3,8
bfc04f64:	00eb0018 	mult	a3,t3
bfc04f68:	00006012 	mflo	t4
bfc04f6c:	014c6821 	addu	t5,t2,t4
bfc04f70:	c5ae0000 	lwc1	$f14,0(t5)
bfc04f74:	c5af0004 	lwc1	$f15,4(t5)
bfc04f78:	27ae0848 	addiu	t6,sp,2120
bfc04f7c:	240f0008 	li	t7,8
bfc04f80:	00ef0018 	mult	a3,t7
bfc04f84:	0000c012 	mflo	t8
bfc04f88:	01d8c821 	addu	t9,t6,t8
bfc04f8c:	c7200000 	lwc1	$f0,0(t9)
bfc04f90:	c7210004 	lwc1	$f1,4(t9)
bfc04f94:	46207080 	add.d	$f2,$f14,$f0
bfc04f98:	e5220000 	swc1	$f2,0(t1)
bfc04f9c:	e5230004 	swc1	$f3,4(t1)
bfc04fa0:	24040001 	li	a0,1
bfc04fa4:	00e43821 	addu	a3,a3,a0
bfc04fa8:	24050003 	li	a1,3
bfc04fac:	00e5302a 	slt	a2,a3,a1
bfc04fb0:	38c60001 	xori	a2,a2,0x1
bfc04fb4:	10c0ffe3 	beqz	a2,bfc04f44 <vp+0xb50>
bfc04fb8:	00000000 	nop
bfc04fbc:	24070010 	li	a3,16
bfc04fc0:	02271821 	addu	v1,s1,a3
bfc04fc4:	c4720000 	lwc1	$f18,0(v1)
bfc04fc8:	c4730004 	lwc1	$f19,4(v1)
bfc04fcc:	24020018 	li	v0,24
bfc04fd0:	02221821 	addu	v1,s1,v0
bfc04fd4:	c4740000 	lwc1	$f20,0(v1)
bfc04fd8:	c4750004 	lwc1	$f21,4(v1)
bfc04fdc:	24080020 	li	t0,32
bfc04fe0:	02284821 	addu	t1,s1,t0
bfc04fe4:	c5380000 	lwc1	$f24,0(t1)
bfc04fe8:	c5390004 	lwc1	$f25,4(t1)
bfc04fec:	24010000 	li	at,0
bfc04ff0:	44812800 	mtc1	at,$f5
bfc04ff4:	44802000 	mtc1	zero,$f4
bfc04ff8:	240a0001 	li	t2,1
bfc04ffc:	4632203c 	c.lt.d	$f4,$f18
bfc05000:	45010002 	bc1t	bfc0500c <vp+0xc18>
bfc05004:	00000000 	nop
bfc05008:	00005021 	move	t2,zero
bfc0500c:	11400003 	beqz	t2,bfc0501c <vp+0xc28>
bfc05010:	00000000 	nop
bfc05014:	0bf01408 	j	bfc05020 <vp+0xc2c>
bfc05018:	00000000 	nop
bfc0501c:	46209487 	neg.d	$f18,$f18
bfc05020:	c7860620 	lwc1	$f6,1568(gp)
bfc05024:	c7870624 	lwc1	$f7,1572(gp)
bfc05028:	240b0001 	li	t3,1
bfc0502c:	4626903c 	c.lt.d	$f18,$f6
bfc05030:	45010002 	bc1t	bfc0503c <vp+0xc48>
bfc05034:	00000000 	nop
bfc05038:	00005821 	move	t3,zero
bfc0503c:	00006021 	move	t4,zero
bfc05040:	016c6826 	xor	t5,t3,t4
bfc05044:	2dad0001 	sltiu	t5,t5,1
bfc05048:	11a00010 	beqz	t5,bfc0508c <vp+0xc98>
bfc0504c:	00000000 	nop
bfc05050:	3c08bfc0 	lui	t0,0xbfc0
bfc05054:	250803fc 	addiu	t0,t0,1020
bfc05058:	27840527 	addiu	a0,gp,1319
bfc0505c:	24050042 	li	a1,66
bfc05060:	03a0f021 	move	s8,sp
bfc05064:	03a0003e 	fst	sp
bfc05068:	03e04009 	jalr	t0,ra
bfc0506c:	00000000 	nop
bfc05070:	3c08bfc0 	lui	t0,0xbfc0
bfc05074:	2508045c 	addiu	t0,t0,1116
bfc05078:	00002021 	move	a0,zero
bfc0507c:	03a0f021 	move	s8,sp
bfc05080:	03a0003e 	fst	sp
bfc05084:	03e04009 	jalr	t0,ra
bfc05088:	00000000 	nop
bfc0508c:	24010000 	li	at,0
bfc05090:	44814800 	mtc1	at,$f9
bfc05094:	44804000 	mtc1	zero,$f8
bfc05098:	240e0001 	li	t6,1
bfc0509c:	4634403c 	c.lt.d	$f8,$f20
bfc050a0:	45010002 	bc1t	bfc050ac <vp+0xcb8>
bfc050a4:	00000000 	nop
bfc050a8:	00007021 	move	t6,zero
bfc050ac:	11c00003 	beqz	t6,bfc050bc <vp+0xcc8>
bfc050b0:	00000000 	nop
bfc050b4:	0bf01430 	j	bfc050c0 <vp+0xccc>
bfc050b8:	00000000 	nop
bfc050bc:	4620a507 	neg.d	$f20,$f20
bfc050c0:	c78a0628 	lwc1	$f10,1576(gp)
bfc050c4:	c78b062c 	lwc1	$f11,1580(gp)
bfc050c8:	240f0001 	li	t7,1
bfc050cc:	462aa03c 	c.lt.d	$f20,$f10
bfc050d0:	45010002 	bc1t	bfc050dc <vp+0xce8>
bfc050d4:	00000000 	nop
bfc050d8:	00007821 	move	t7,zero
bfc050dc:	0000c021 	move	t8,zero
bfc050e0:	01f8c826 	xor	t9,t7,t8
bfc050e4:	2f390001 	sltiu	t9,t9,1
bfc050e8:	13200010 	beqz	t9,bfc0512c <vp+0xd38>
bfc050ec:	00000000 	nop
bfc050f0:	3c08bfc0 	lui	t0,0xbfc0
bfc050f4:	250803fc 	addiu	t0,t0,1020
bfc050f8:	27840527 	addiu	a0,gp,1319
bfc050fc:	24050041 	li	a1,65
bfc05100:	03a0f021 	move	s8,sp
bfc05104:	03a0003e 	fst	sp
bfc05108:	03e04009 	jalr	t0,ra
bfc0510c:	00000000 	nop
bfc05110:	3c08bfc0 	lui	t0,0xbfc0
bfc05114:	2508045c 	addiu	t0,t0,1116
bfc05118:	00002021 	move	a0,zero
bfc0511c:	03a0f021 	move	s8,sp
bfc05120:	03a0003e 	fst	sp
bfc05124:	03e04009 	jalr	t0,ra
bfc05128:	00000000 	nop
bfc0512c:	24010000 	li	at,0
bfc05130:	44818800 	mtc1	at,$f17
bfc05134:	44808000 	mtc1	zero,$f16
bfc05138:	24040001 	li	a0,1
bfc0513c:	4638803c 	c.lt.d	$f16,$f24
bfc05140:	45010002 	bc1t	bfc0514c <vp+0xd58>
bfc05144:	00000000 	nop
bfc05148:	00002021 	move	a0,zero
bfc0514c:	10800003 	beqz	a0,bfc0515c <vp+0xd68>
bfc05150:	00000000 	nop
bfc05154:	0bf01458 	j	bfc05160 <vp+0xd6c>
bfc05158:	00000000 	nop
bfc0515c:	4620c607 	neg.d	$f24,$f24
bfc05160:	c7920630 	lwc1	$f18,1584(gp)
bfc05164:	c7930634 	lwc1	$f19,1588(gp)
bfc05168:	24050001 	li	a1,1
bfc0516c:	4632c03c 	c.lt.d	$f24,$f18
bfc05170:	45010002 	bc1t	bfc0517c <vp+0xd88>
bfc05174:	00000000 	nop
bfc05178:	00002821 	move	a1,zero
bfc0517c:	00003021 	move	a2,zero
bfc05180:	00a63826 	xor	a3,a1,a2
bfc05184:	2ce70001 	sltiu	a3,a3,1
bfc05188:	10e00010 	beqz	a3,bfc051cc <vp+0xdd8>
bfc0518c:	00000000 	nop
bfc05190:	3c08bfc0 	lui	t0,0xbfc0
bfc05194:	250803fc 	addiu	t0,t0,1020
bfc05198:	27840527 	addiu	a0,gp,1319
bfc0519c:	24050040 	li	a1,64
bfc051a0:	03a0f021 	move	s8,sp
bfc051a4:	03a0003e 	fst	sp
bfc051a8:	03e04009 	jalr	t0,ra
bfc051ac:	00000000 	nop
bfc051b0:	3c08bfc0 	lui	t0,0xbfc0
bfc051b4:	2508045c 	addiu	t0,t0,1116
bfc051b8:	00002021 	move	a0,zero
bfc051bc:	03a0f021 	move	s8,sp
bfc051c0:	03a0003e 	fst	sp
bfc051c4:	03e04009 	jalr	t0,ra
bfc051c8:	00000000 	nop
bfc051cc:	24020084 	li	v0,132
bfc051d0:	02221821 	addu	v1,s1,v0
bfc051d4:	8c710000 	lw	s1,0(v1)
bfc051d8:	24080000 	li	t0,0
bfc051dc:	02284826 	xor	t1,s1,t0
bfc051e0:	0009482b 	sltu	t1,zero,t1
bfc051e4:	1520fca3 	bnez	t1,bfc04474 <vp+0x80>
bfc051e8:	00000000 	nop
bfc051ec:	4bf0147c 	cqip	bfc051f0 <vp+0xdfc>
bfc051f0:	53f0147c 	pslice_entry	bfc051f0 <vp+0xdfc>
bfc051f4:	57f0147c 	pslice_exit	bfc051f0 <vp+0xdfc>
bfc051f8:	8fbf0004 	lw	ra,4(sp)
bfc051fc:	8fb00008 	lw	s0,8(sp)
bfc05200:	8fb1000c 	lw	s1,12(sp)
bfc05204:	c7b40010 	lwc1	$f20,16(sp)
bfc05208:	c7b50014 	lwc1	$f21,20(sp)
bfc0520c:	c7b60018 	lwc1	$f22,24(sp)
bfc05210:	c7b7001c 	lwc1	$f23,28(sp)
bfc05214:	c7b80020 	lwc1	$f24,32(sp)
bfc05218:	c7b90024 	lwc1	$f25,36(sp)
bfc0521c:	8fbd0000 	lw	sp,0(sp)
bfc05220:	03e00008 	jr	ra
bfc05224:	00000000 	nop

bfc05228 <gravstep>:
bfc05228:	b3f01490 	spawn	bfc05240 <gravstep+0x18>
bfc0522c:	27bdffd0 	addiu	sp,sp,-48
bfc05230:	0000003f 	ust
bfc05234:	afbf0004 	sw	ra,4(sp)
bfc05238:	afbe0000 	sw	s8,0(sp)
bfc0523c:	4bf01490 	cqip	bfc05240 <gravstep+0x18>
bfc05240:	53f01490 	pslice_entry	bfc05240 <gravstep+0x18>
bfc05244:	27bdffd0 	addiu	sp,sp,-48
bfc05248:	57f01490 	pslice_exit	bfc05240 <gravstep+0x18>
bfc0524c:	00c07021 	move	t6,a2
bfc05250:	3c08bfc0 	lui	t0,0xbfc0
bfc05254:	25087a60 	addiu	t0,t0,31328
bfc05258:	00e02021 	move	a0,a3
bfc0525c:	46206386 	mov.d	$f14,$f12
bfc05260:	44067000 	mfc1	a2,$f14
bfc05264:	44077800 	mfc1	a3,$f15
bfc05268:	03a0f021 	move	s8,sp
bfc0526c:	03a0003e 	fst	sp
bfc05270:	afaeffec 	sw	t6,-20(sp)
bfc05274:	03e04009 	jalr	t0,ra
bfc05278:	00000000 	nop
bfc0527c:	8fbf0004 	lw	ra,4(sp)
bfc05280:	8fbd0000 	lw	sp,0(sp)
bfc05284:	03e00008 	jr	ra
bfc05288:	00000000 	nop

bfc0528c <ptree>:
bfc0528c:	b3f014ac 	spawn	bfc052b0 <ptree+0x24>
bfc05290:	27bdff78 	addiu	sp,sp,-136
bfc05294:	0000003f 	ust
bfc05298:	afbf0004 	sw	ra,4(sp)
bfc0529c:	afb00008 	sw	s0,8(sp)
bfc052a0:	afb1000c 	sw	s1,12(sp)
bfc052a4:	afb20010 	sw	s2,16(sp)
bfc052a8:	afbe0000 	sw	s8,0(sp)
bfc052ac:	4bf014ac 	cqip	bfc052b0 <ptree+0x24>
bfc052b0:	53f014ac 	pslice_entry	bfc052b0 <ptree+0x24>
bfc052b4:	27bdff78 	addiu	sp,sp,-136
bfc052b8:	57f014ac 	pslice_exit	bfc052b0 <ptree+0x24>
bfc052bc:	00808821 	move	s1,a0
bfc052c0:	00a08021 	move	s0,a1
bfc052c4:	24190000 	li	t9,0
bfc052c8:	02392026 	xor	a0,s1,t9
bfc052cc:	0004202b 	sltu	a0,zero,a0
bfc052d0:	10800022 	beqz	a0,bfc0535c <ptree+0xd0>
bfc052d4:	00000000 	nop
bfc052d8:	00002821 	move	a1,zero
bfc052dc:	02253021 	addu	a2,s1,a1
bfc052e0:	84cf0000 	lh	t7,0(a2)
bfc052e4:	24070001 	li	a3,1
bfc052e8:	01e71026 	xor	v0,t7,a3
bfc052ec:	2c420001 	sltiu	v0,v0,1
bfc052f0:	14400022 	bnez	v0,bfc0537c <ptree+0xf0>
bfc052f4:	00000000 	nop
bfc052f8:	00009021 	move	s2,zero
bfc052fc:	24030030 	li	v1,48
bfc05300:	0223c021 	addu	t8,s1,v1
bfc05304:	24080004 	li	t0,4
bfc05308:	02480018 	mult	s2,t0
bfc0530c:	00004812 	mflo	t1
bfc05310:	03095021 	addu	t2,t8,t1
bfc05314:	8d440000 	lw	a0,0(t2)
bfc05318:	3c08bfc0 	lui	t0,0xbfc0
bfc0531c:	2508528c 	addiu	t0,t0,21132
bfc05320:	240b0001 	li	t3,1
bfc05324:	020b2821 	addu	a1,s0,t3
bfc05328:	03a0f021 	move	s8,sp
bfc0532c:	03a0003e 	fst	sp
bfc05330:	03e04009 	jalr	t0,ra
bfc05334:	00000000 	nop
bfc05338:	240c0001 	li	t4,1
bfc0533c:	024c9021 	addu	s2,s2,t4
bfc05340:	240d0008 	li	t5,8
bfc05344:	024d702a 	slt	t6,s2,t5
bfc05348:	39ce0001 	xori	t6,t6,0x1
bfc0534c:	11c0ffeb 	beqz	t6,bfc052fc <ptree+0x70>
bfc05350:	00000000 	nop
bfc05354:	0bf014df 	j	bfc0537c <ptree+0xf0>
bfc05358:	00000000 	nop
bfc0535c:	3c08bfc0 	lui	t0,0xbfc0
bfc05360:	250803fc 	addiu	t0,t0,1020
bfc05364:	2784053d 	addiu	a0,gp,1341
bfc05368:	02002821 	move	a1,s0
bfc0536c:	03a0f021 	move	s8,sp
bfc05370:	03a0003e 	fst	sp
bfc05374:	03e04009 	jalr	t0,ra
bfc05378:	00000000 	nop
bfc0537c:	8fbf0004 	lw	ra,4(sp)
bfc05380:	8fb00008 	lw	s0,8(sp)
bfc05384:	8fb1000c 	lw	s1,12(sp)
bfc05388:	8fb20010 	lw	s2,16(sp)
bfc0538c:	8fbd0000 	lw	sp,0(sp)
bfc05390:	03e00008 	jr	ra
bfc05394:	00000000 	nop

bfc05398 <testdata>:
bfc05398:	b3f014fe 	spawn	bfc053f8 <testdata+0x60>
bfc0539c:	27bdf858 	addiu	sp,sp,-1960
bfc053a0:	0000003f 	ust
bfc053a4:	afbf0004 	sw	ra,4(sp)
bfc053a8:	afb00008 	sw	s0,8(sp)
bfc053ac:	afb1000c 	sw	s1,12(sp)
bfc053b0:	afb20010 	sw	s2,16(sp)
bfc053b4:	afb30014 	sw	s3,20(sp)
bfc053b8:	afb40018 	sw	s4,24(sp)
bfc053bc:	afb5001c 	sw	s5,28(sp)
bfc053c0:	e7b40020 	swc1	$f20,32(sp)
bfc053c4:	e7b50024 	swc1	$f21,36(sp)
bfc053c8:	e7b60028 	swc1	$f22,40(sp)
bfc053cc:	e7b7002c 	swc1	$f23,44(sp)
bfc053d0:	e7b80030 	swc1	$f24,48(sp)
bfc053d4:	e7b90034 	swc1	$f25,52(sp)
bfc053d8:	e7ba0038 	swc1	$f26,56(sp)
bfc053dc:	e7bb003c 	swc1	$f27,60(sp)
bfc053e0:	e7bc0040 	swc1	$f28,64(sp)
bfc053e4:	e7bd0044 	swc1	$f29,68(sp)
bfc053e8:	e7be0048 	swc1	$f30,72(sp)
bfc053ec:	e7bf004c 	swc1	$f31,76(sp)
bfc053f0:	afbe0000 	sw	s8,0(sp)
bfc053f4:	4bf014fe 	cqip	bfc053f8 <testdata+0x60>
bfc053f8:	53f014fe 	pslice_entry	bfc053f8 <testdata+0x60>
bfc053fc:	27bdf858 	addiu	sp,sp,-1960
bfc05400:	57f014fe 	pslice_exit	bfc053f8 <testdata+0x60>
bfc05404:	b3f017c2 	spawn	bfc05f08 <testdata+0xb70>
bfc05408:	c7980638 	lwc1	$f24,1592(gp)
bfc0540c:	c799063c 	lwc1	$f25,1596(gp)
bfc05410:	3c08bfc0 	lui	t0,0xbfc0
bfc05414:	250803fc 	addiu	t0,t0,1020
bfc05418:	278404c8 	addiu	a0,gp,1224
bfc0541c:	24050063 	li	a1,99
bfc05420:	03a0f021 	move	s8,sp
bfc05424:	03a0003e 	fst	sp
bfc05428:	03e04009 	jalr	t0,ra
bfc0542c:	00000000 	nop
bfc05430:	3c08bfc0 	lui	t0,0xbfc0
bfc05434:	2508045c 	addiu	t0,t0,1116
bfc05438:	00002021 	move	a0,zero
bfc0543c:	03a0f021 	move	s8,sp
bfc05440:	03a0003e 	fst	sp
bfc05444:	03e04009 	jalr	t0,ra
bfc05448:	00000000 	nop
bfc0544c:	c7960640 	lwc1	$f22,1600(gp)
bfc05450:	c7970644 	lwc1	$f23,1604(gp)
bfc05454:	3c08bfc0 	lui	t0,0xbfc0
bfc05458:	25080780 	addiu	t0,t0,1920
bfc0545c:	3c013ff0 	lui	at,0x3ff0
bfc05460:	44817800 	mtc1	at,$f15
bfc05464:	44807000 	mtc1	zero,$f14
bfc05468:	46367303 	div.d	$f12,$f14,$f22
bfc0546c:	03a0f021 	move	s8,sp
bfc05470:	03a0003e 	fst	sp
bfc05474:	03e04009 	jalr	t0,ra
bfc05478:	00000000 	nop
bfc0547c:	46200506 	mov.d	$f20,$f0
bfc05480:	00007821 	move	t7,zero
bfc05484:	27b80760 	addiu	t8,sp,1888
bfc05488:	24190008 	li	t9,8
bfc0548c:	01f90018 	mult	t7,t9
bfc05490:	00002012 	mflo	a0
bfc05494:	03042821 	addu	a1,t8,a0
bfc05498:	24010000 	li	at,0
bfc0549c:	44810800 	mtc1	at,$f1
bfc054a0:	44800000 	mtc1	zero,$f0
bfc054a4:	e4a00000 	swc1	$f0,0(a1)
bfc054a8:	e4a10004 	swc1	$f1,4(a1)
bfc054ac:	24060001 	li	a2,1
bfc054b0:	01e67821 	addu	t7,t7,a2
bfc054b4:	24070003 	li	a3,3
bfc054b8:	01e7102a 	slt	v0,t7,a3
bfc054bc:	38420001 	xori	v0,v0,0x1
bfc054c0:	1040fff0 	beqz	v0,bfc05484 <testdata+0xec>
bfc054c4:	00000000 	nop
bfc054c8:	00001821 	move	v1,zero
bfc054cc:	27a80748 	addiu	t0,sp,1864
bfc054d0:	24090008 	li	t1,8
bfc054d4:	00690018 	mult	v1,t1
bfc054d8:	00005012 	mflo	t2
bfc054dc:	010a5821 	addu	t3,t0,t2
bfc054e0:	24010000 	li	at,0
bfc054e4:	44811800 	mtc1	at,$f3
bfc054e8:	44801000 	mtc1	zero,$f2
bfc054ec:	e5620000 	swc1	$f2,0(t3)
bfc054f0:	e5630004 	swc1	$f3,4(t3)
bfc054f4:	240c0001 	li	t4,1
bfc054f8:	006c1821 	addu	v1,v1,t4
bfc054fc:	240d0003 	li	t5,3
bfc05500:	006d702a 	slt	t6,v1,t5
bfc05504:	39ce0001 	xori	t6,t6,0x1
bfc05508:	11c0fff0 	beqz	t6,bfc054cc <testdata+0x134>
bfc0550c:	00000000 	nop
bfc05510:	3c08bfc0 	lui	t0,0xbfc0
bfc05514:	25087294 	addiu	t0,t0,29332
bfc05518:	00002021 	move	a0,zero
bfc0551c:	03a0f021 	move	s8,sp
bfc05520:	03a0003e 	fst	sp
bfc05524:	03e04009 	jalr	t0,ra
bfc05528:	00000000 	nop
bfc0552c:	00408821 	move	s1,v0
bfc05530:	02208021 	move	s0,s1
bfc05534:	00007821 	move	t7,zero
bfc05538:	8f98055c 	lw	t8,1372(gp)
bfc0553c:	01f8c82a 	slt	t9,t7,t8
bfc05540:	132001e5 	beqz	t9,bfc05cd8 <testdata+0x940>
bfc05544:	00000000 	nop
bfc05548:	00009821 	move	s3,zero
bfc0554c:	3c08bfc0 	lui	t0,0xbfc0
bfc05550:	25087294 	addiu	t0,t0,29332
bfc05554:	00002021 	move	a0,zero
bfc05558:	03a0f021 	move	s8,sp
bfc0555c:	03a0003e 	fst	sp
bfc05560:	03e04009 	jalr	t0,ra
bfc05564:	00000000 	nop
bfc05568:	00409021 	move	s2,v0
bfc0556c:	24040000 	li	a0,0
bfc05570:	02442826 	xor	a1,s2,a0
bfc05574:	2ca50001 	sltiu	a1,a1,1
bfc05578:	10a00008 	beqz	a1,bfc0559c <testdata+0x204>
bfc0557c:	00000000 	nop
bfc05580:	3c08bfc0 	lui	t0,0xbfc0
bfc05584:	250803cc 	addiu	t0,t0,972
bfc05588:	278404de 	addiu	a0,gp,1246
bfc0558c:	03a0f021 	move	s8,sp
bfc05590:	03a0003e 	fst	sp
bfc05594:	03e04009 	jalr	t0,ra
bfc05598:	00000000 	nop
bfc0559c:	24060080 	li	a2,128
bfc055a0:	02063821 	addu	a3,s0,a2
bfc055a4:	acf20000 	sw	s2,0(a3)
bfc055a8:	02408021 	move	s0,s2
bfc055ac:	00001021 	move	v0,zero
bfc055b0:	02421821 	addu	v1,s2,v0
bfc055b4:	24080001 	li	t0,1
bfc055b8:	a4680000 	sh	t0,0(v1)
bfc055bc:	24090008 	li	t1,8
bfc055c0:	02495021 	addu	t2,s2,t1
bfc055c4:	3c013ff0 	lui	at,0x3ff0
bfc055c8:	44812800 	mtc1	at,$f5
bfc055cc:	44802000 	mtc1	zero,$f4
bfc055d0:	8f8b055c 	lw	t3,1372(gp)
bfc055d4:	448b3000 	mtc1	t3,$f6
bfc055d8:	46803221 	cvt.d.w	$f8,$f6
bfc055dc:	46282283 	div.d	$f10,$f4,$f8
bfc055e0:	e54a0000 	swc1	$f10,0(t2)
bfc055e4:	e54b0004 	swc1	$f11,4(t2)
bfc055e8:	3c08bfc0 	lui	t0,0xbfc0
bfc055ec:	2508341c 	addiu	t0,t0,13340
bfc055f0:	4620c306 	mov.d	$f12,$f24
bfc055f4:	03a0f021 	move	s8,sp
bfc055f8:	03a0003e 	fst	sp
bfc055fc:	03e04009 	jalr	t0,ra
bfc05600:	00000000 	nop
bfc05604:	46200606 	mov.d	$f24,$f0
bfc05608:	3c08bfc0 	lui	t0,0xbfc0
bfc0560c:	25083494 	addiu	t0,t0,13460
bfc05610:	24010000 	li	at,0
bfc05614:	44816800 	mtc1	at,$f13
bfc05618:	44806000 	mtc1	zero,$f12
bfc0561c:	c78e0648 	lwc1	$f14,1608(gp)
bfc05620:	c78f064c 	lwc1	$f15,1612(gp)
bfc05624:	03a0f021 	move	s8,sp
bfc05628:	03a0003e 	fst	sp
bfc0562c:	e7b8ffe8 	swc1	$f24,-24(sp)
bfc05630:	e7b9ffec 	swc1	$f25,-20(sp)
bfc05634:	03e04009 	jalr	t0,ra
bfc05638:	00000000 	nop
bfc0563c:	3c08bfc0 	lui	t0,0xbfc0
bfc05640:	25080cf8 	addiu	t0,t0,3320
bfc05644:	c78e0650 	lwc1	$f14,1616(gp)
bfc05648:	c78f0654 	lwc1	$f15,1620(gp)
bfc0564c:	46200306 	mov.d	$f12,$f0
bfc05650:	03a0f021 	move	s8,sp
bfc05654:	03a0003e 	fst	sp
bfc05658:	03e04009 	jalr	t0,ra
bfc0565c:	00000000 	nop
bfc05660:	3c013ff0 	lui	at,0x3ff0
bfc05664:	44818800 	mtc1	at,$f17
bfc05668:	44808000 	mtc1	zero,$f16
bfc0566c:	46300301 	sub.d	$f12,$f0,$f16
bfc05670:	3c013ff0 	lui	at,0x3ff0
bfc05674:	4481d800 	mtc1	at,$f27
bfc05678:	4480d000 	mtc1	zero,$f26
bfc0567c:	3c08bfc0 	lui	t0,0xbfc0
bfc05680:	25080780 	addiu	t0,t0,1920
bfc05684:	03a0f021 	move	s8,sp
bfc05688:	03a0003e 	fst	sp
bfc0568c:	03e04009 	jalr	t0,ra
bfc05690:	00000000 	nop
bfc05694:	4620d703 	div.d	$f28,$f26,$f0
bfc05698:	463cb682 	mul.d	$f26,$f22,$f28
bfc0569c:	0000a021 	move	s4,zero
bfc056a0:	3c08bfc0 	lui	t0,0xbfc0
bfc056a4:	2508341c 	addiu	t0,t0,13340
bfc056a8:	4620c306 	mov.d	$f12,$f24
bfc056ac:	03a0f021 	move	s8,sp
bfc056b0:	03a0003e 	fst	sp
bfc056b4:	03e04009 	jalr	t0,ra
bfc056b8:	00000000 	nop
bfc056bc:	46200606 	mov.d	$f24,$f0
bfc056c0:	240c0010 	li	t4,16
bfc056c4:	024c7821 	addu	t7,s2,t4
bfc056c8:	240d0008 	li	t5,8
bfc056cc:	028d0018 	mult	s4,t5
bfc056d0:	00007012 	mflo	t6
bfc056d4:	01eea821 	addu	s5,t7,t6
bfc056d8:	3c08bfc0 	lui	t0,0xbfc0
bfc056dc:	25083494 	addiu	t0,t0,13460
bfc056e0:	3c01bff0 	lui	at,0xbff0
bfc056e4:	44816800 	mtc1	at,$f13
bfc056e8:	44806000 	mtc1	zero,$f12
bfc056ec:	3c013ff0 	lui	at,0x3ff0
bfc056f0:	44817800 	mtc1	at,$f15
bfc056f4:	44807000 	mtc1	zero,$f14
bfc056f8:	03a0f021 	move	s8,sp
bfc056fc:	03a0003e 	fst	sp
bfc05700:	e7b8ffe8 	swc1	$f24,-24(sp)
bfc05704:	e7b9ffec 	swc1	$f25,-20(sp)
bfc05708:	03e04009 	jalr	t0,ra
bfc0570c:	00000000 	nop
bfc05710:	e6a00000 	swc1	$f0,0(s5)
bfc05714:	e6a10004 	swc1	$f1,4(s5)
bfc05718:	240f0001 	li	t7,1
bfc0571c:	028fa021 	addu	s4,s4,t7
bfc05720:	24180003 	li	t8,3
bfc05724:	0298c82a 	slt	t9,s4,t8
bfc05728:	3b390001 	xori	t9,t9,0x1
bfc0572c:	1320ffdc 	beqz	t9,bfc056a0 <testdata+0x308>
bfc05730:	00000000 	nop
bfc05734:	24010000 	li	at,0
bfc05738:	44816800 	mtc1	at,$f13
bfc0573c:	44806000 	mtc1	zero,$f12
bfc05740:	00002021 	move	a0,zero
bfc05744:	24050010 	li	a1,16
bfc05748:	0245c821 	addu	t9,s2,a1
bfc0574c:	24060008 	li	a2,8
bfc05750:	00860018 	mult	a0,a2
bfc05754:	00003812 	mflo	a3
bfc05758:	03271021 	addu	v0,t9,a3
bfc0575c:	c4520000 	lwc1	$f18,0(v0)
bfc05760:	c4530004 	lwc1	$f19,4(v0)
bfc05764:	24030010 	li	v1,16
bfc05768:	0243c021 	addu	t8,s2,v1
bfc0576c:	24080008 	li	t0,8
bfc05770:	00880018 	mult	a0,t0
bfc05774:	00004812 	mflo	t1
bfc05778:	03095021 	addu	t2,t8,t1
bfc0577c:	c54e0000 	lwc1	$f14,0(t2)
bfc05780:	c54f0004 	lwc1	$f15,4(t2)
bfc05784:	462e9382 	mul.d	$f14,$f18,$f14
bfc05788:	462e6300 	add.d	$f12,$f12,$f14
bfc0578c:	240b0001 	li	t3,1
bfc05790:	008b2021 	addu	a0,a0,t3
bfc05794:	240c0003 	li	t4,3
bfc05798:	008c682a 	slt	t5,a0,t4
bfc0579c:	39ad0001 	xori	t5,t5,0x1
bfc057a0:	11a0ffe8 	beqz	t5,bfc05744 <testdata+0x3ac>
bfc057a4:	00000000 	nop
bfc057a8:	3c013ff0 	lui	at,0x3ff0
bfc057ac:	44810800 	mtc1	at,$f1
bfc057b0:	44800000 	mtc1	zero,$f0
bfc057b4:	240e0001 	li	t6,1
bfc057b8:	462c003c 	c.lt.d	$f0,$f12
bfc057bc:	45010002 	bc1t	bfc057c8 <testdata+0x430>
bfc057c0:	00000000 	nop
bfc057c4:	00007021 	move	t6,zero
bfc057c8:	15c0ffb4 	bnez	t6,bfc0569c <testdata+0x304>
bfc057cc:	00000000 	nop
bfc057d0:	3c08bfc0 	lui	t0,0xbfc0
bfc057d4:	25080780 	addiu	t0,t0,1920
bfc057d8:	03a0f021 	move	s8,sp
bfc057dc:	03a0003e 	fst	sp
bfc057e0:	03e04009 	jalr	t0,ra
bfc057e4:	00000000 	nop
bfc057e8:	4620d083 	div.d	$f2,$f26,$f0
bfc057ec:	00007821 	move	t7,zero
bfc057f0:	24180010 	li	t8,16
bfc057f4:	02582821 	addu	a1,s2,t8
bfc057f8:	24190008 	li	t9,8
bfc057fc:	01f90018 	mult	t7,t9
bfc05800:	00002012 	mflo	a0
bfc05804:	00a42821 	addu	a1,a1,a0
bfc05808:	24060010 	li	a2,16
bfc0580c:	02462021 	addu	a0,s2,a2
bfc05810:	24070008 	li	a3,8
bfc05814:	01e70018 	mult	t7,a3
bfc05818:	00001012 	mflo	v0
bfc0581c:	00821821 	addu	v1,a0,v0
bfc05820:	c4640000 	lwc1	$f4,0(v1)
bfc05824:	c4650004 	lwc1	$f5,4(v1)
bfc05828:	46222182 	mul.d	$f6,$f4,$f2
bfc0582c:	e4a60000 	swc1	$f6,0(a1)
bfc05830:	e4a70004 	swc1	$f7,4(a1)
bfc05834:	24080001 	li	t0,1
bfc05838:	01e87821 	addu	t7,t7,t0
bfc0583c:	24090003 	li	t1,3
bfc05840:	01e9502a 	slt	t2,t7,t1
bfc05844:	394a0001 	xori	t2,t2,0x1
bfc05848:	1140ffe9 	beqz	t2,bfc057f0 <testdata+0x458>
bfc0584c:	00000000 	nop
bfc05850:	00005821 	move	t3,zero
bfc05854:	27ac0760 	addiu	t4,sp,1888
bfc05858:	240d0008 	li	t5,8
bfc0585c:	016d0018 	mult	t3,t5
bfc05860:	00007012 	mflo	t6
bfc05864:	018e7821 	addu	t7,t4,t6
bfc05868:	27b80760 	addiu	t8,sp,1888
bfc0586c:	24190008 	li	t9,8
bfc05870:	01790018 	mult	t3,t9
bfc05874:	00002012 	mflo	a0
bfc05878:	03042821 	addu	a1,t8,a0
bfc0587c:	c4a80000 	lwc1	$f8,0(a1)
bfc05880:	c4a90004 	lwc1	$f9,4(a1)
bfc05884:	24060010 	li	a2,16
bfc05888:	02463021 	addu	a2,s2,a2
bfc0588c:	24070008 	li	a3,8
bfc05890:	01670018 	mult	t3,a3
bfc05894:	00001012 	mflo	v0
bfc05898:	00c21821 	addu	v1,a2,v0
bfc0589c:	c46a0000 	lwc1	$f10,0(v1)
bfc058a0:	c46b0004 	lwc1	$f11,4(v1)
bfc058a4:	462a4400 	add.d	$f16,$f8,$f10
bfc058a8:	e5f00000 	swc1	$f16,0(t7)
bfc058ac:	e5f10004 	swc1	$f17,4(t7)
bfc058b0:	24080001 	li	t0,1
bfc058b4:	01685821 	addu	t3,t3,t0
bfc058b8:	24090003 	li	t1,3
bfc058bc:	0169502a 	slt	t2,t3,t1
bfc058c0:	394a0001 	xori	t2,t2,0x1
bfc058c4:	1140ffe3 	beqz	t2,bfc05854 <testdata+0x4bc>
bfc058c8:	00000000 	nop
bfc058cc:	3c08bfc0 	lui	t0,0xbfc0
bfc058d0:	2508341c 	addiu	t0,t0,13340
bfc058d4:	4620c306 	mov.d	$f12,$f24
bfc058d8:	03a0f021 	move	s8,sp
bfc058dc:	03a0003e 	fst	sp
bfc058e0:	03e04009 	jalr	t0,ra
bfc058e4:	00000000 	nop
bfc058e8:	46200606 	mov.d	$f24,$f0
bfc058ec:	3c08bfc0 	lui	t0,0xbfc0
bfc058f0:	25083494 	addiu	t0,t0,13460
bfc058f4:	24010000 	li	at,0
bfc058f8:	44816800 	mtc1	at,$f13
bfc058fc:	44806000 	mtc1	zero,$f12
bfc05900:	3c013ff0 	lui	at,0x3ff0
bfc05904:	44817800 	mtc1	at,$f15
bfc05908:	44807000 	mtc1	zero,$f14
bfc0590c:	03a0f021 	move	s8,sp
bfc05910:	03a0003e 	fst	sp
bfc05914:	e7b8ffe8 	swc1	$f24,-24(sp)
bfc05918:	e7b9ffec 	swc1	$f25,-20(sp)
bfc0591c:	03e04009 	jalr	t0,ra
bfc05920:	00000000 	nop
bfc05924:	46200786 	mov.d	$f30,$f0
bfc05928:	3c08bfc0 	lui	t0,0xbfc0
bfc0592c:	2508341c 	addiu	t0,t0,13340
bfc05930:	4620c306 	mov.d	$f12,$f24
bfc05934:	03a0f021 	move	s8,sp
bfc05938:	03a0003e 	fst	sp
bfc0593c:	03e04009 	jalr	t0,ra
bfc05940:	00000000 	nop
bfc05944:	46200606 	mov.d	$f24,$f0
bfc05948:	3c08bfc0 	lui	t0,0xbfc0
bfc0594c:	25083494 	addiu	t0,t0,13460
bfc05950:	24010000 	li	at,0
bfc05954:	44816800 	mtc1	at,$f13
bfc05958:	44806000 	mtc1	zero,$f12
bfc0595c:	c78e0658 	lwc1	$f14,1624(gp)
bfc05960:	c78f065c 	lwc1	$f15,1628(gp)
bfc05964:	03a0f021 	move	s8,sp
bfc05968:	03a0003e 	fst	sp
bfc0596c:	e7b8ffe8 	swc1	$f24,-24(sp)
bfc05970:	e7b9ffec 	swc1	$f25,-20(sp)
bfc05974:	03e04009 	jalr	t0,ra
bfc05978:	00000000 	nop
bfc0597c:	46200686 	mov.d	$f26,$f0
bfc05980:	3c08bfc0 	lui	t0,0xbfc0
bfc05984:	250804b0 	addiu	t0,t0,1200
bfc05988:	278404fb 	addiu	a0,gp,1275
bfc0598c:	4620f386 	mov.d	$f14,$f30
bfc05990:	44067000 	mfc1	a2,$f14
bfc05994:	44077800 	mfc1	a3,$f15
bfc05998:	03a0f021 	move	s8,sp
bfc0599c:	03a0003e 	fst	sp
bfc059a0:	e7baffe8 	swc1	$f26,-24(sp)
bfc059a4:	e7bbffec 	swc1	$f27,-20(sp)
bfc059a8:	03e04009 	jalr	t0,ra
bfc059ac:	00000000 	nop
bfc059b0:	463ef482 	mul.d	$f18,$f30,$f30
bfc059b4:	e7b203c0 	swc1	$f18,960(sp)
bfc059b8:	e7b303c4 	swc1	$f19,964(sp)
bfc059bc:	3c08bfc0 	lui	t0,0xbfc0
bfc059c0:	25080cf8 	addiu	t0,t0,3320
bfc059c4:	3c013ff0 	lui	at,0x3ff0
bfc059c8:	44819800 	mtc1	at,$f19
bfc059cc:	44809000 	mtc1	zero,$f18
bfc059d0:	463ef302 	mul.d	$f12,$f30,$f30
bfc059d4:	462c9301 	sub.d	$f12,$f18,$f12
bfc059d8:	3c01400c 	lui	at,0x400c
bfc059dc:	44817800 	mtc1	at,$f15
bfc059e0:	44807000 	mtc1	zero,$f14
bfc059e4:	03a0f021 	move	s8,sp
bfc059e8:	03a0003e 	fst	sp
bfc059ec:	03e04009 	jalr	t0,ra
bfc059f0:	00000000 	nop
bfc059f4:	c7b003c0 	lwc1	$f16,960(sp)
bfc059f8:	c7b103c4 	lwc1	$f17,964(sp)
bfc059fc:	46208382 	mul.d	$f14,$f16,$f0
bfc05a00:	240b0001 	li	t3,1
bfc05a04:	463a703c 	c.lt.d	$f14,$f26
bfc05a08:	45010002 	bc1t	bfc05a14 <testdata+0x67c>
bfc05a0c:	00000000 	nop
bfc05a10:	00005821 	move	t3,zero
bfc05a14:	1560ffad 	bnez	t3,bfc058cc <testdata+0x534>
bfc05a18:	00000000 	nop
bfc05a1c:	3c08bfc0 	lui	t0,0xbfc0
bfc05a20:	25080780 	addiu	t0,t0,1920
bfc05a24:	3c014000 	lui	at,0x4000
bfc05a28:	44816800 	mtc1	at,$f13
bfc05a2c:	44806000 	mtc1	zero,$f12
bfc05a30:	03a0f021 	move	s8,sp
bfc05a34:	03a0003e 	fst	sp
bfc05a38:	03e04009 	jalr	t0,ra
bfc05a3c:	00000000 	nop
bfc05a40:	463e0682 	mul.d	$f26,$f0,$f30
bfc05a44:	3c08bfc0 	lui	t0,0xbfc0
bfc05a48:	25080cf8 	addiu	t0,t0,3320
bfc05a4c:	3c013ff0 	lui	at,0x3ff0
bfc05a50:	44810800 	mtc1	at,$f1
bfc05a54:	44800000 	mtc1	zero,$f0
bfc05a58:	463ce082 	mul.d	$f2,$f28,$f28
bfc05a5c:	46220300 	add.d	$f12,$f0,$f2
bfc05a60:	3c013fd0 	lui	at,0x3fd0
bfc05a64:	44817800 	mtc1	at,$f15
bfc05a68:	44807000 	mtc1	zero,$f14
bfc05a6c:	03a0f021 	move	s8,sp
bfc05a70:	03a0003e 	fst	sp
bfc05a74:	03e04009 	jalr	t0,ra
bfc05a78:	00000000 	nop
bfc05a7c:	4620d103 	div.d	$f4,$f26,$f0
bfc05a80:	4624a682 	mul.d	$f26,$f20,$f4
bfc05a84:	0000a021 	move	s4,zero
bfc05a88:	3c08bfc0 	lui	t0,0xbfc0
bfc05a8c:	2508341c 	addiu	t0,t0,13340
bfc05a90:	4620c306 	mov.d	$f12,$f24
bfc05a94:	03a0f021 	move	s8,sp
bfc05a98:	03a0003e 	fst	sp
bfc05a9c:	03e04009 	jalr	t0,ra
bfc05aa0:	00000000 	nop
bfc05aa4:	46200606 	mov.d	$f24,$f0
bfc05aa8:	240c0030 	li	t4,48
bfc05aac:	024c3821 	addu	a3,s2,t4
bfc05ab0:	240d0008 	li	t5,8
bfc05ab4:	028d0018 	mult	s4,t5
bfc05ab8:	00007012 	mflo	t6
bfc05abc:	00eea821 	addu	s5,a3,t6
bfc05ac0:	3c08bfc0 	lui	t0,0xbfc0
bfc05ac4:	25083494 	addiu	t0,t0,13460
bfc05ac8:	3c01bff0 	lui	at,0xbff0
bfc05acc:	44816800 	mtc1	at,$f13
bfc05ad0:	44806000 	mtc1	zero,$f12
bfc05ad4:	3c013ff0 	lui	at,0x3ff0
bfc05ad8:	44817800 	mtc1	at,$f15
bfc05adc:	44807000 	mtc1	zero,$f14
bfc05ae0:	03a0f021 	move	s8,sp
bfc05ae4:	03a0003e 	fst	sp
bfc05ae8:	e7b8ffe8 	swc1	$f24,-24(sp)
bfc05aec:	e7b9ffec 	swc1	$f25,-20(sp)
bfc05af0:	03e04009 	jalr	t0,ra
bfc05af4:	00000000 	nop
bfc05af8:	e6a00000 	swc1	$f0,0(s5)
bfc05afc:	e6a10004 	swc1	$f1,4(s5)
bfc05b00:	240f0001 	li	t7,1
bfc05b04:	028fa021 	addu	s4,s4,t7
bfc05b08:	24180003 	li	t8,3
bfc05b0c:	0298c82a 	slt	t9,s4,t8
bfc05b10:	3b390001 	xori	t9,t9,0x1
bfc05b14:	1320ffdc 	beqz	t9,bfc05a88 <testdata+0x6f0>
bfc05b18:	00000000 	nop
bfc05b1c:	24010000 	li	at,0
bfc05b20:	44816800 	mtc1	at,$f13
bfc05b24:	44806000 	mtc1	zero,$f12
bfc05b28:	00002021 	move	a0,zero
bfc05b2c:	24050030 	li	a1,48
bfc05b30:	02451821 	addu	v1,s2,a1
bfc05b34:	24060008 	li	a2,8
bfc05b38:	00860018 	mult	a0,a2
bfc05b3c:	00003812 	mflo	a3
bfc05b40:	00671021 	addu	v0,v1,a3
bfc05b44:	c4460000 	lwc1	$f6,0(v0)
bfc05b48:	c4470004 	lwc1	$f7,4(v0)
bfc05b4c:	24030030 	li	v1,48
bfc05b50:	02431021 	addu	v0,s2,v1
bfc05b54:	24080008 	li	t0,8
bfc05b58:	00880018 	mult	a0,t0
bfc05b5c:	00004812 	mflo	t1
bfc05b60:	00495021 	addu	t2,v0,t1
bfc05b64:	c5480000 	lwc1	$f8,0(t2)
bfc05b68:	c5490004 	lwc1	$f9,4(t2)
bfc05b6c:	46283282 	mul.d	$f10,$f6,$f8
bfc05b70:	462a6300 	add.d	$f12,$f12,$f10
bfc05b74:	240b0001 	li	t3,1
bfc05b78:	008b2021 	addu	a0,a0,t3
bfc05b7c:	240c0003 	li	t4,3
bfc05b80:	008c682a 	slt	t5,a0,t4
bfc05b84:	39ad0001 	xori	t5,t5,0x1
bfc05b88:	11a0ffe8 	beqz	t5,bfc05b2c <testdata+0x794>
bfc05b8c:	00000000 	nop
bfc05b90:	3c013ff0 	lui	at,0x3ff0
bfc05b94:	44818800 	mtc1	at,$f17
bfc05b98:	44808000 	mtc1	zero,$f16
bfc05b9c:	240e0001 	li	t6,1
bfc05ba0:	462c803c 	c.lt.d	$f16,$f12
bfc05ba4:	45010002 	bc1t	bfc05bb0 <testdata+0x818>
bfc05ba8:	00000000 	nop
bfc05bac:	00007021 	move	t6,zero
bfc05bb0:	15c0ffb4 	bnez	t6,bfc05a84 <testdata+0x6ec>
bfc05bb4:	00000000 	nop
bfc05bb8:	3c08bfc0 	lui	t0,0xbfc0
bfc05bbc:	25080780 	addiu	t0,t0,1920
bfc05bc0:	03a0f021 	move	s8,sp
bfc05bc4:	03a0003e 	fst	sp
bfc05bc8:	03e04009 	jalr	t0,ra
bfc05bcc:	00000000 	nop
bfc05bd0:	4620d083 	div.d	$f2,$f26,$f0
bfc05bd4:	00007821 	move	t7,zero
bfc05bd8:	24180030 	li	t8,48
bfc05bdc:	02584821 	addu	t1,s2,t8
bfc05be0:	24190008 	li	t9,8
bfc05be4:	01f90018 	mult	t7,t9
bfc05be8:	00002012 	mflo	a0
bfc05bec:	01242821 	addu	a1,t1,a0
bfc05bf0:	24060030 	li	a2,48
bfc05bf4:	02464021 	addu	t0,s2,a2
bfc05bf8:	24070008 	li	a3,8
bfc05bfc:	01e70018 	mult	t7,a3
bfc05c00:	00001012 	mflo	v0
bfc05c04:	01021821 	addu	v1,t0,v0
bfc05c08:	c4720000 	lwc1	$f18,0(v1)
bfc05c0c:	c4730004 	lwc1	$f19,4(v1)
bfc05c10:	46229302 	mul.d	$f12,$f18,$f2
bfc05c14:	e4ac0000 	swc1	$f12,0(a1)
bfc05c18:	e4ad0004 	swc1	$f13,4(a1)
bfc05c1c:	24080001 	li	t0,1
bfc05c20:	01e87821 	addu	t7,t7,t0
bfc05c24:	24090003 	li	t1,3
bfc05c28:	01e9502a 	slt	t2,t7,t1
bfc05c2c:	394a0001 	xori	t2,t2,0x1
bfc05c30:	1140ffe9 	beqz	t2,bfc05bd8 <testdata+0x840>
bfc05c34:	00000000 	nop
bfc05c38:	00005821 	move	t3,zero
bfc05c3c:	27ac0748 	addiu	t4,sp,1864
bfc05c40:	240d0008 	li	t5,8
bfc05c44:	016d0018 	mult	t3,t5
bfc05c48:	00007012 	mflo	t6
bfc05c4c:	018e7821 	addu	t7,t4,t6
bfc05c50:	27b80748 	addiu	t8,sp,1864
bfc05c54:	24190008 	li	t9,8
bfc05c58:	01790018 	mult	t3,t9
bfc05c5c:	00002012 	mflo	a0
bfc05c60:	03042821 	addu	a1,t8,a0
bfc05c64:	c4ae0000 	lwc1	$f14,0(a1)
bfc05c68:	c4af0004 	lwc1	$f15,4(a1)
bfc05c6c:	24060030 	li	a2,48
bfc05c70:	02465021 	addu	t2,s2,a2
bfc05c74:	24070008 	li	a3,8
bfc05c78:	01670018 	mult	t3,a3
bfc05c7c:	00001012 	mflo	v0
bfc05c80:	01421821 	addu	v1,t2,v0
bfc05c84:	c4600000 	lwc1	$f0,0(v1)
bfc05c88:	c4610004 	lwc1	$f1,4(v1)
bfc05c8c:	46207080 	add.d	$f2,$f14,$f0
bfc05c90:	e5e20000 	swc1	$f2,0(t7)
bfc05c94:	e5e30004 	swc1	$f3,4(t7)
bfc05c98:	24080001 	li	t0,1
bfc05c9c:	01685821 	addu	t3,t3,t0
bfc05ca0:	24090003 	li	t1,3
bfc05ca4:	0169502a 	slt	t2,t3,t1
bfc05ca8:	394a0001 	xori	t2,t2,0x1
bfc05cac:	1140ffe3 	beqz	t2,bfc05c3c <testdata+0x8a4>
bfc05cb0:	00000000 	nop
bfc05cb4:	240b0001 	li	t3,1
bfc05cb8:	026b9821 	addu	s3,s3,t3
bfc05cbc:	8f8c055c 	lw	t4,1372(gp)
bfc05cc0:	026c682a 	slt	t5,s3,t4
bfc05cc4:	39ad0001 	xori	t5,t5,0x1
bfc05cc8:	11a0fe20 	beqz	t5,bfc0554c <testdata+0x1b4>
bfc05ccc:	00000000 	nop
bfc05cd0:	0bf01737 	j	bfc05cdc <testdata+0x944>
bfc05cd4:	00000000 	nop
bfc05cd8:	00009821 	move	s3,zero
bfc05cdc:	240e0080 	li	t6,128
bfc05ce0:	020e7821 	addu	t7,s0,t6
bfc05ce4:	24180000 	li	t8,0
bfc05ce8:	adf80000 	sw	t8,0(t7)
bfc05cec:	24190080 	li	t9,128
bfc05cf0:	02392021 	addu	a0,s1,t9
bfc05cf4:	8c910000 	lw	s1,0(a0)
bfc05cf8:	00002821 	move	a1,zero
bfc05cfc:	27a60760 	addiu	a2,sp,1888
bfc05d00:	24070008 	li	a3,8
bfc05d04:	00a70018 	mult	a1,a3
bfc05d08:	00001012 	mflo	v0
bfc05d0c:	00c21821 	addu	v1,a2,v0
bfc05d10:	27a80760 	addiu	t0,sp,1888
bfc05d14:	24090008 	li	t1,8
bfc05d18:	00a90018 	mult	a1,t1
bfc05d1c:	00005012 	mflo	t2
bfc05d20:	010a5821 	addu	t3,t0,t2
bfc05d24:	c5640000 	lwc1	$f4,0(t3)
bfc05d28:	c5650004 	lwc1	$f5,4(t3)
bfc05d2c:	8f8c055c 	lw	t4,1372(gp)
bfc05d30:	448c3000 	mtc1	t4,$f6
bfc05d34:	46803221 	cvt.d.w	$f8,$f6
bfc05d38:	46282283 	div.d	$f10,$f4,$f8
bfc05d3c:	e46a0000 	swc1	$f10,0(v1)
bfc05d40:	e46b0004 	swc1	$f11,4(v1)
bfc05d44:	240d0001 	li	t5,1
bfc05d48:	00ad2821 	addu	a1,a1,t5
bfc05d4c:	240e0003 	li	t6,3
bfc05d50:	00ae782a 	slt	t7,a1,t6
bfc05d54:	39ef0001 	xori	t7,t7,0x1
bfc05d58:	11e0ffe8 	beqz	t7,bfc05cfc <testdata+0x964>
bfc05d5c:	00000000 	nop
bfc05d60:	0000c021 	move	t8,zero
bfc05d64:	27b90748 	addiu	t9,sp,1864
bfc05d68:	24040008 	li	a0,8
bfc05d6c:	03040018 	mult	t8,a0
bfc05d70:	00002812 	mflo	a1
bfc05d74:	03253021 	addu	a2,t9,a1
bfc05d78:	27a70748 	addiu	a3,sp,1864
bfc05d7c:	24020008 	li	v0,8
bfc05d80:	03020018 	mult	t8,v0
bfc05d84:	00001812 	mflo	v1
bfc05d88:	00e34021 	addu	t0,a3,v1
bfc05d8c:	c5100000 	lwc1	$f16,0(t0)
bfc05d90:	c5110004 	lwc1	$f17,4(t0)
bfc05d94:	8f89055c 	lw	t1,1372(gp)
bfc05d98:	44899000 	mtc1	t1,$f18
bfc05d9c:	46809321 	cvt.d.w	$f12,$f18
bfc05da0:	462c8383 	div.d	$f14,$f16,$f12
bfc05da4:	e4ce0000 	swc1	$f14,0(a2)
bfc05da8:	e4cf0004 	swc1	$f15,4(a2)
bfc05dac:	240a0001 	li	t2,1
bfc05db0:	030ac021 	addu	t8,t8,t2
bfc05db4:	240b0003 	li	t3,3
bfc05db8:	030b602a 	slt	t4,t8,t3
bfc05dbc:	398c0001 	xori	t4,t4,0x1
bfc05dc0:	1180ffe8 	beqz	t4,bfc05d64 <testdata+0x9cc>
bfc05dc4:	00000000 	nop
bfc05dc8:	02209021 	move	s2,s1
bfc05dcc:	240d0000 	li	t5,0
bfc05dd0:	024d7026 	xor	t6,s2,t5
bfc05dd4:	000e702b 	sltu	t6,zero,t6
bfc05dd8:	11c00049 	beqz	t6,bfc05f00 <testdata+0xb68>
bfc05ddc:	00000000 	nop
bfc05de0:	00007821 	move	t7,zero
bfc05de4:	24180010 	li	t8,16
bfc05de8:	02586021 	addu	t4,s2,t8
bfc05dec:	24190008 	li	t9,8
bfc05df0:	01f90018 	mult	t7,t9
bfc05df4:	00002012 	mflo	a0
bfc05df8:	01842821 	addu	a1,t4,a0
bfc05dfc:	24060010 	li	a2,16
bfc05e00:	02465821 	addu	t3,s2,a2
bfc05e04:	24070008 	li	a3,8
bfc05e08:	01e70018 	mult	t7,a3
bfc05e0c:	00001012 	mflo	v0
bfc05e10:	01621821 	addu	v1,t3,v0
bfc05e14:	c4600000 	lwc1	$f0,0(v1)
bfc05e18:	c4610004 	lwc1	$f1,4(v1)
bfc05e1c:	27a80760 	addiu	t0,sp,1888
bfc05e20:	24090008 	li	t1,8
bfc05e24:	01e90018 	mult	t7,t1
bfc05e28:	00005012 	mflo	t2
bfc05e2c:	010a5821 	addu	t3,t0,t2
bfc05e30:	c5620000 	lwc1	$f2,0(t3)
bfc05e34:	c5630004 	lwc1	$f3,4(t3)
bfc05e38:	46220101 	sub.d	$f4,$f0,$f2
bfc05e3c:	e4a40000 	swc1	$f4,0(a1)
bfc05e40:	e4a50004 	swc1	$f5,4(a1)
bfc05e44:	240c0001 	li	t4,1
bfc05e48:	01ec7821 	addu	t7,t7,t4
bfc05e4c:	240d0003 	li	t5,3
bfc05e50:	01ed702a 	slt	t6,t7,t5
bfc05e54:	39ce0001 	xori	t6,t6,0x1
bfc05e58:	11c0ffe2 	beqz	t6,bfc05de4 <testdata+0xa4c>
bfc05e5c:	00000000 	nop
bfc05e60:	00007821 	move	t7,zero
bfc05e64:	24180030 	li	t8,48
bfc05e68:	02587021 	addu	t6,s2,t8
bfc05e6c:	24190008 	li	t9,8
bfc05e70:	01f90018 	mult	t7,t9
bfc05e74:	00002012 	mflo	a0
bfc05e78:	01c42821 	addu	a1,t6,a0
bfc05e7c:	24060030 	li	a2,48
bfc05e80:	02466821 	addu	t5,s2,a2
bfc05e84:	24070008 	li	a3,8
bfc05e88:	01e70018 	mult	t7,a3
bfc05e8c:	00001012 	mflo	v0
bfc05e90:	01a21821 	addu	v1,t5,v0
bfc05e94:	c4660000 	lwc1	$f6,0(v1)
bfc05e98:	c4670004 	lwc1	$f7,4(v1)
bfc05e9c:	27a80748 	addiu	t0,sp,1864
bfc05ea0:	24090008 	li	t1,8
bfc05ea4:	01e90018 	mult	t7,t1
bfc05ea8:	00005012 	mflo	t2
bfc05eac:	010a5821 	addu	t3,t0,t2
bfc05eb0:	c5680000 	lwc1	$f8,0(t3)
bfc05eb4:	c5690004 	lwc1	$f9,4(t3)
bfc05eb8:	46283281 	sub.d	$f10,$f6,$f8
bfc05ebc:	e4aa0000 	swc1	$f10,0(a1)
bfc05ec0:	e4ab0004 	swc1	$f11,4(a1)
bfc05ec4:	240c0001 	li	t4,1
bfc05ec8:	01ec7821 	addu	t7,t7,t4
bfc05ecc:	240d0003 	li	t5,3
bfc05ed0:	01ed702a 	slt	t6,t7,t5
bfc05ed4:	39ce0001 	xori	t6,t6,0x1
bfc05ed8:	11c0ffe2 	beqz	t6,bfc05e64 <testdata+0xacc>
bfc05edc:	00000000 	nop
bfc05ee0:	240f0080 	li	t7,128
bfc05ee4:	024fc021 	addu	t8,s2,t7
bfc05ee8:	8f120000 	lw	s2,0(t8)
bfc05eec:	24190000 	li	t9,0
bfc05ef0:	02592026 	xor	a0,s2,t9
bfc05ef4:	0004202b 	sltu	a0,zero,a0
bfc05ef8:	1480ffb9 	bnez	a0,bfc05de0 <testdata+0xa48>
bfc05efc:	00000000 	nop
bfc05f00:	02201021 	move	v0,s1
bfc05f04:	4bf017c2 	cqip	bfc05f08 <testdata+0xb70>
bfc05f08:	53f017c2 	pslice_entry	bfc05f08 <testdata+0xb70>
bfc05f0c:	57f017c2 	pslice_exit	bfc05f08 <testdata+0xb70>
bfc05f10:	8fbf0004 	lw	ra,4(sp)
bfc05f14:	8fb00008 	lw	s0,8(sp)
bfc05f18:	8fb1000c 	lw	s1,12(sp)
bfc05f1c:	8fb20010 	lw	s2,16(sp)
bfc05f20:	8fb30014 	lw	s3,20(sp)
bfc05f24:	8fb40018 	lw	s4,24(sp)
bfc05f28:	8fb5001c 	lw	s5,28(sp)
bfc05f2c:	c7b40020 	lwc1	$f20,32(sp)
bfc05f30:	c7b50024 	lwc1	$f21,36(sp)
bfc05f34:	c7b60028 	lwc1	$f22,40(sp)
bfc05f38:	c7b7002c 	lwc1	$f23,44(sp)
bfc05f3c:	c7b80030 	lwc1	$f24,48(sp)
bfc05f40:	c7b90034 	lwc1	$f25,52(sp)
bfc05f44:	c7ba0038 	lwc1	$f26,56(sp)
bfc05f48:	c7bb003c 	lwc1	$f27,60(sp)
bfc05f4c:	c7bc0040 	lwc1	$f28,64(sp)
bfc05f50:	c7bd0044 	lwc1	$f29,68(sp)
bfc05f54:	c7be0048 	lwc1	$f30,72(sp)
bfc05f58:	c7bf004c 	lwc1	$f31,76(sp)
bfc05f5c:	8fbd0000 	lw	sp,0(sp)
bfc05f60:	03e00008 	jr	ra
bfc05f64:	00000000 	nop

bfc05f68 <uniform_testdata>:
bfc05f68:	b3f017f4 	spawn	bfc05fd0 <uniform_testdata+0x68>
bfc05f6c:	27bdfa90 	addiu	sp,sp,-1392
bfc05f70:	0000003f 	ust
bfc05f74:	afbf0004 	sw	ra,4(sp)
bfc05f78:	afb00008 	sw	s0,8(sp)
bfc05f7c:	afb1000c 	sw	s1,12(sp)
bfc05f80:	afb20010 	sw	s2,16(sp)
bfc05f84:	afb30014 	sw	s3,20(sp)
bfc05f88:	afb40018 	sw	s4,24(sp)
bfc05f8c:	afb5001c 	sw	s5,28(sp)
bfc05f90:	afb60020 	sw	s6,32(sp)
bfc05f94:	afb70024 	sw	s7,36(sp)
bfc05f98:	e7b40028 	swc1	$f20,40(sp)
bfc05f9c:	e7b5002c 	swc1	$f21,44(sp)
bfc05fa0:	e7b60030 	swc1	$f22,48(sp)
bfc05fa4:	e7b70034 	swc1	$f23,52(sp)
bfc05fa8:	e7b80038 	swc1	$f24,56(sp)
bfc05fac:	e7b9003c 	swc1	$f25,60(sp)
bfc05fb0:	e7ba0040 	swc1	$f26,64(sp)
bfc05fb4:	e7bb0044 	swc1	$f27,68(sp)
bfc05fb8:	e7bc0048 	swc1	$f28,72(sp)
bfc05fbc:	e7bd004c 	swc1	$f29,76(sp)
bfc05fc0:	e7be0050 	swc1	$f30,80(sp)
bfc05fc4:	e7bf0054 	swc1	$f31,84(sp)
bfc05fc8:	afbe0000 	sw	s8,0(sp)
bfc05fcc:	4bf017f4 	cqip	bfc05fd0 <uniform_testdata+0x68>
bfc05fd0:	53f017f4 	pslice_entry	bfc05fd0 <uniform_testdata+0x68>
bfc05fd4:	27bdfa90 	addiu	sp,sp,-1392
bfc05fd8:	57f017f4 	pslice_exit	bfc05fd0 <uniform_testdata+0x68>
bfc05fdc:	b3f01a0f 	spawn	bfc0683c <uniform_testdata+0x8d4>
bfc05fe0:	00809021 	move	s2,a0
bfc05fe4:	00a08821 	move	s1,a1
bfc05fe8:	00c08021 	move	s0,a2
bfc05fec:	c7840660 	lwc1	$f4,1632(gp)
bfc05ff0:	c7850664 	lwc1	$f5,1636(gp)
bfc05ff4:	44873000 	mtc1	a3,$f6
bfc05ff8:	46803221 	cvt.d.w	$f8,$f6
bfc05ffc:	46282582 	mul.d	$f22,$f4,$f8
bfc06000:	c78a0668 	lwc1	$f10,1640(gp)
bfc06004:	c78b066c 	lwc1	$f11,1644(gp)
bfc06008:	3c08bfc0 	lui	t0,0xbfc0
bfc0600c:	25080780 	addiu	t0,t0,1920
bfc06010:	3c013ff0 	lui	at,0x3ff0
bfc06014:	44818800 	mtc1	at,$f17
bfc06018:	44808000 	mtc1	zero,$f16
bfc0601c:	462a8303 	div.d	$f12,$f16,$f10
bfc06020:	03a0f021 	move	s8,sp
bfc06024:	03a0003e 	fst	sp
bfc06028:	03e04009 	jalr	t0,ra
bfc0602c:	00000000 	nop
bfc06030:	46200506 	mov.d	$f20,$f0
bfc06034:	00005021 	move	t2,zero
bfc06038:	27ab0528 	addiu	t3,sp,1320
bfc0603c:	240c0008 	li	t4,8
bfc06040:	014c0018 	mult	t2,t4
bfc06044:	00006812 	mflo	t5
bfc06048:	016d7021 	addu	t6,t3,t5
bfc0604c:	24010000 	li	at,0
bfc06050:	44819800 	mtc1	at,$f19
bfc06054:	44809000 	mtc1	zero,$f18
bfc06058:	e5d20000 	swc1	$f18,0(t6)
bfc0605c:	e5d30004 	swc1	$f19,4(t6)
bfc06060:	240f0001 	li	t7,1
bfc06064:	014f5021 	addu	t2,t2,t7
bfc06068:	24180003 	li	t8,3
bfc0606c:	0158c82a 	slt	t9,t2,t8
bfc06070:	3b390001 	xori	t9,t9,0x1
bfc06074:	1320fff0 	beqz	t9,bfc06038 <uniform_testdata+0xd0>
bfc06078:	00000000 	nop
bfc0607c:	00002021 	move	a0,zero
bfc06080:	27a50540 	addiu	a1,sp,1344
bfc06084:	24060008 	li	a2,8
bfc06088:	00860018 	mult	a0,a2
bfc0608c:	00003812 	mflo	a3
bfc06090:	00a71021 	addu	v0,a1,a3
bfc06094:	24010000 	li	at,0
bfc06098:	44816800 	mtc1	at,$f13
bfc0609c:	44806000 	mtc1	zero,$f12
bfc060a0:	e44c0000 	swc1	$f12,0(v0)
bfc060a4:	e44d0004 	swc1	$f13,4(v0)
bfc060a8:	24030001 	li	v1,1
bfc060ac:	00832021 	addu	a0,a0,v1
bfc060b0:	24080003 	li	t0,3
bfc060b4:	0088482a 	slt	t1,a0,t0
bfc060b8:	39290001 	xori	t1,t1,0x1
bfc060bc:	1120fff0 	beqz	t1,bfc06080 <uniform_testdata+0x118>
bfc060c0:	00000000 	nop
bfc060c4:	3c08bfc0 	lui	t0,0xbfc0
bfc060c8:	25087294 	addiu	t0,t0,29332
bfc060cc:	02202021 	move	a0,s1
bfc060d0:	03a0f021 	move	s8,sp
bfc060d4:	03a0003e 	fst	sp
bfc060d8:	03e04009 	jalr	t0,ra
bfc060dc:	00000000 	nop
bfc060e0:	0040a021 	move	s4,v0
bfc060e4:	02809821 	move	s3,s4
bfc060e8:	00005021 	move	t2,zero
bfc060ec:	0150582a 	slt	t3,t2,s0
bfc060f0:	116001a7 	beqz	t3,bfc06790 <uniform_testdata+0x828>
bfc060f4:	00000000 	nop
bfc060f8:	0000b021 	move	s6,zero
bfc060fc:	3c08bfc0 	lui	t0,0xbfc0
bfc06100:	25087294 	addiu	t0,t0,29332
bfc06104:	02202021 	move	a0,s1
bfc06108:	03a0f021 	move	s8,sp
bfc0610c:	03a0003e 	fst	sp
bfc06110:	03e04009 	jalr	t0,ra
bfc06114:	00000000 	nop
bfc06118:	0040a821 	move	s5,v0
bfc0611c:	240c0000 	li	t4,0
bfc06120:	02ac6826 	xor	t5,s5,t4
bfc06124:	2dad0001 	sltiu	t5,t5,1
bfc06128:	11a00008 	beqz	t5,bfc0614c <uniform_testdata+0x1e4>
bfc0612c:	00000000 	nop
bfc06130:	3c08bfc0 	lui	t0,0xbfc0
bfc06134:	250803cc 	addiu	t0,t0,972
bfc06138:	278404de 	addiu	a0,gp,1246
bfc0613c:	03a0f021 	move	s8,sp
bfc06140:	03a0003e 	fst	sp
bfc06144:	03e04009 	jalr	t0,ra
bfc06148:	00000000 	nop
bfc0614c:	240e0080 	li	t6,128
bfc06150:	026e7821 	addu	t7,s3,t6
bfc06154:	adf50000 	sw	s5,0(t7)
bfc06158:	02a09821 	move	s3,s5
bfc0615c:	0000c021 	move	t8,zero
bfc06160:	02b8c821 	addu	t9,s5,t8
bfc06164:	24040001 	li	a0,1
bfc06168:	a7240000 	sh	a0,0(t9)
bfc0616c:	24050008 	li	a1,8
bfc06170:	02a53021 	addu	a2,s5,a1
bfc06174:	3c013ff0 	lui	at,0x3ff0
bfc06178:	44817800 	mtc1	at,$f15
bfc0617c:	44807000 	mtc1	zero,$f14
bfc06180:	44900000 	mtc1	s0,$f0
bfc06184:	468000a1 	cvt.d.w	$f2,$f0
bfc06188:	46227103 	div.d	$f4,$f14,$f2
bfc0618c:	e4c40000 	swc1	$f4,0(a2)
bfc06190:	e4c50004 	swc1	$f5,4(a2)
bfc06194:	3c08bfc0 	lui	t0,0xbfc0
bfc06198:	2508341c 	addiu	t0,t0,13340
bfc0619c:	4620b306 	mov.d	$f12,$f22
bfc061a0:	03a0f021 	move	s8,sp
bfc061a4:	03a0003e 	fst	sp
bfc061a8:	03e04009 	jalr	t0,ra
bfc061ac:	00000000 	nop
bfc061b0:	46200586 	mov.d	$f22,$f0
bfc061b4:	3c08bfc0 	lui	t0,0xbfc0
bfc061b8:	25083494 	addiu	t0,t0,13460
bfc061bc:	24010000 	li	at,0
bfc061c0:	44816800 	mtc1	at,$f13
bfc061c4:	44806000 	mtc1	zero,$f12
bfc061c8:	c78e0670 	lwc1	$f14,1648(gp)
bfc061cc:	c78f0674 	lwc1	$f15,1652(gp)
bfc061d0:	03a0f021 	move	s8,sp
bfc061d4:	03a0003e 	fst	sp
bfc061d8:	e7b6ffe8 	swc1	$f22,-24(sp)
bfc061dc:	e7b7ffec 	swc1	$f23,-20(sp)
bfc061e0:	03e04009 	jalr	t0,ra
bfc061e4:	00000000 	nop
bfc061e8:	3c08bfc0 	lui	t0,0xbfc0
bfc061ec:	25080cf8 	addiu	t0,t0,3320
bfc061f0:	c78e0678 	lwc1	$f14,1656(gp)
bfc061f4:	c78f067c 	lwc1	$f15,1660(gp)
bfc061f8:	46200306 	mov.d	$f12,$f0
bfc061fc:	03a0f021 	move	s8,sp
bfc06200:	03a0003e 	fst	sp
bfc06204:	03e04009 	jalr	t0,ra
bfc06208:	00000000 	nop
bfc0620c:	3c013ff0 	lui	at,0x3ff0
bfc06210:	44813800 	mtc1	at,$f7
bfc06214:	44803000 	mtc1	zero,$f6
bfc06218:	46260301 	sub.d	$f12,$f0,$f6
bfc0621c:	3c013ff0 	lui	at,0x3ff0
bfc06220:	4481c800 	mtc1	at,$f25
bfc06224:	4480c000 	mtc1	zero,$f24
bfc06228:	3c08bfc0 	lui	t0,0xbfc0
bfc0622c:	25080780 	addiu	t0,t0,1920
bfc06230:	03a0f021 	move	s8,sp
bfc06234:	03a0003e 	fst	sp
bfc06238:	03e04009 	jalr	t0,ra
bfc0623c:	00000000 	nop
bfc06240:	4620c603 	div.d	$f24,$f24,$f0
bfc06244:	3c014010 	lui	at,0x4010
bfc06248:	4481d800 	mtc1	at,$f27
bfc0624c:	4480d000 	mtc1	zero,$f26
bfc06250:	0000b821 	move	s7,zero
bfc06254:	3c08bfc0 	lui	t0,0xbfc0
bfc06258:	2508341c 	addiu	t0,t0,13340
bfc0625c:	4620b306 	mov.d	$f12,$f22
bfc06260:	03a0f021 	move	s8,sp
bfc06264:	03a0003e 	fst	sp
bfc06268:	03e04009 	jalr	t0,ra
bfc0626c:	00000000 	nop
bfc06270:	46200586 	mov.d	$f22,$f0
bfc06274:	3c08bfc0 	lui	t0,0xbfc0
bfc06278:	25083494 	addiu	t0,t0,13460
bfc0627c:	24010000 	li	at,0
bfc06280:	44816800 	mtc1	at,$f13
bfc06284:	44806000 	mtc1	zero,$f12
bfc06288:	c78e0680 	lwc1	$f14,1664(gp)
bfc0628c:	c78f0684 	lwc1	$f15,1668(gp)
bfc06290:	03a0f021 	move	s8,sp
bfc06294:	03a0003e 	fst	sp
bfc06298:	e7b6ffe8 	swc1	$f22,-24(sp)
bfc0629c:	e7b7ffec 	swc1	$f23,-20(sp)
bfc062a0:	03e04009 	jalr	t0,ra
bfc062a4:	00000000 	nop
bfc062a8:	46200606 	mov.d	$f24,$f0
bfc062ac:	24070010 	li	a3,16
bfc062b0:	02a72021 	addu	a0,s5,a3
bfc062b4:	24020008 	li	v0,8
bfc062b8:	02e20018 	mult	s7,v0
bfc062bc:	00001812 	mflo	v1
bfc062c0:	00834021 	addu	t0,a0,v1
bfc062c4:	4638d202 	mul.d	$f8,$f26,$f24
bfc062c8:	e5080000 	swc1	$f8,0(t0)
bfc062cc:	e5090004 	swc1	$f9,4(t0)
bfc062d0:	24090001 	li	t1,1
bfc062d4:	02e9b821 	addu	s7,s7,t1
bfc062d8:	240a0003 	li	t2,3
bfc062dc:	02ea582a 	slt	t3,s7,t2
bfc062e0:	396b0001 	xori	t3,t3,0x1
bfc062e4:	1160ffdb 	beqz	t3,bfc06254 <uniform_testdata+0x2ec>
bfc062e8:	00000000 	nop
bfc062ec:	00005021 	move	t2,zero
bfc062f0:	27ac0528 	addiu	t4,sp,1320
bfc062f4:	240d0008 	li	t5,8
bfc062f8:	014d0018 	mult	t2,t5
bfc062fc:	00007012 	mflo	t6
bfc06300:	018e7821 	addu	t7,t4,t6
bfc06304:	27b80528 	addiu	t8,sp,1320
bfc06308:	24190008 	li	t9,8
bfc0630c:	01590018 	mult	t2,t9
bfc06310:	00002012 	mflo	a0
bfc06314:	03042821 	addu	a1,t8,a0
bfc06318:	c4aa0000 	lwc1	$f10,0(a1)
bfc0631c:	c4ab0004 	lwc1	$f11,4(a1)
bfc06320:	24060010 	li	a2,16
bfc06324:	02a62821 	addu	a1,s5,a2
bfc06328:	24070008 	li	a3,8
bfc0632c:	01470018 	mult	t2,a3
bfc06330:	00001012 	mflo	v0
bfc06334:	00a21821 	addu	v1,a1,v0
bfc06338:	c4700000 	lwc1	$f16,0(v1)
bfc0633c:	c4710004 	lwc1	$f17,4(v1)
bfc06340:	46305480 	add.d	$f18,$f10,$f16
bfc06344:	e5f20000 	swc1	$f18,0(t7)
bfc06348:	e5f30004 	swc1	$f19,4(t7)
bfc0634c:	24080001 	li	t0,1
bfc06350:	01485021 	addu	t2,t2,t0
bfc06354:	24090003 	li	t1,3
bfc06358:	0149582a 	slt	t3,t2,t1
bfc0635c:	396b0001 	xori	t3,t3,0x1
bfc06360:	1160ffe3 	beqz	t3,bfc062f0 <uniform_testdata+0x388>
bfc06364:	00000000 	nop
bfc06368:	3c08bfc0 	lui	t0,0xbfc0
bfc0636c:	2508341c 	addiu	t0,t0,13340
bfc06370:	4620b306 	mov.d	$f12,$f22
bfc06374:	03a0f021 	move	s8,sp
bfc06378:	03a0003e 	fst	sp
bfc0637c:	03e04009 	jalr	t0,ra
bfc06380:	00000000 	nop
bfc06384:	46200586 	mov.d	$f22,$f0
bfc06388:	3c08bfc0 	lui	t0,0xbfc0
bfc0638c:	25083494 	addiu	t0,t0,13460
bfc06390:	24010000 	li	at,0
bfc06394:	44816800 	mtc1	at,$f13
bfc06398:	44806000 	mtc1	zero,$f12
bfc0639c:	3c013ff0 	lui	at,0x3ff0
bfc063a0:	44817800 	mtc1	at,$f15
bfc063a4:	44807000 	mtc1	zero,$f14
bfc063a8:	03a0f021 	move	s8,sp
bfc063ac:	03a0003e 	fst	sp
bfc063b0:	e7b6ffe8 	swc1	$f22,-24(sp)
bfc063b4:	e7b7ffec 	swc1	$f23,-20(sp)
bfc063b8:	03e04009 	jalr	t0,ra
bfc063bc:	00000000 	nop
bfc063c0:	46200786 	mov.d	$f30,$f0
bfc063c4:	3c08bfc0 	lui	t0,0xbfc0
bfc063c8:	2508341c 	addiu	t0,t0,13340
bfc063cc:	4620b306 	mov.d	$f12,$f22
bfc063d0:	03a0f021 	move	s8,sp
bfc063d4:	03a0003e 	fst	sp
bfc063d8:	03e04009 	jalr	t0,ra
bfc063dc:	00000000 	nop
bfc063e0:	46200586 	mov.d	$f22,$f0
bfc063e4:	3c08bfc0 	lui	t0,0xbfc0
bfc063e8:	25083494 	addiu	t0,t0,13460
bfc063ec:	24010000 	li	at,0
bfc063f0:	44816800 	mtc1	at,$f13
bfc063f4:	44806000 	mtc1	zero,$f12
bfc063f8:	c78e0688 	lwc1	$f14,1672(gp)
bfc063fc:	c78f068c 	lwc1	$f15,1676(gp)
bfc06400:	03a0f021 	move	s8,sp
bfc06404:	03a0003e 	fst	sp
bfc06408:	e7b6ffe8 	swc1	$f22,-24(sp)
bfc0640c:	e7b7ffec 	swc1	$f23,-20(sp)
bfc06410:	03e04009 	jalr	t0,ra
bfc06414:	00000000 	nop
bfc06418:	46200706 	mov.d	$f28,$f0
bfc0641c:	3c08bfc0 	lui	t0,0xbfc0
bfc06420:	250804b0 	addiu	t0,t0,1200
bfc06424:	27840508 	addiu	a0,gp,1288
bfc06428:	4620f386 	mov.d	$f14,$f30
bfc0642c:	44067000 	mfc1	a2,$f14
bfc06430:	44077800 	mfc1	a3,$f15
bfc06434:	03a0f021 	move	s8,sp
bfc06438:	03a0003e 	fst	sp
bfc0643c:	e7bcffe8 	swc1	$f28,-24(sp)
bfc06440:	e7bdffec 	swc1	$f29,-20(sp)
bfc06444:	03e04009 	jalr	t0,ra
bfc06448:	00000000 	nop
bfc0644c:	3c08bfc0 	lui	t0,0xbfc0
bfc06450:	25080488 	addiu	t0,t0,1160
bfc06454:	2784051d 	addiu	a0,gp,1309
bfc06458:	4620b386 	mov.d	$f14,$f22
bfc0645c:	44067000 	mfc1	a2,$f14
bfc06460:	44077800 	mfc1	a3,$f15
bfc06464:	03a0f021 	move	s8,sp
bfc06468:	03a0003e 	fst	sp
bfc0646c:	03e04009 	jalr	t0,ra
bfc06470:	00000000 	nop
bfc06474:	463ef682 	mul.d	$f26,$f30,$f30
bfc06478:	3c08bfc0 	lui	t0,0xbfc0
bfc0647c:	25080cf8 	addiu	t0,t0,3320
bfc06480:	3c013ff0 	lui	at,0x3ff0
bfc06484:	44816800 	mtc1	at,$f13
bfc06488:	44806000 	mtc1	zero,$f12
bfc0648c:	463ef382 	mul.d	$f14,$f30,$f30
bfc06490:	462e6301 	sub.d	$f12,$f12,$f14
bfc06494:	3c01400c 	lui	at,0x400c
bfc06498:	44817800 	mtc1	at,$f15
bfc0649c:	44807000 	mtc1	zero,$f14
bfc064a0:	03a0f021 	move	s8,sp
bfc064a4:	03a0003e 	fst	sp
bfc064a8:	03e04009 	jalr	t0,ra
bfc064ac:	00000000 	nop
bfc064b0:	4620d002 	mul.d	$f0,$f26,$f0
bfc064b4:	240c0001 	li	t4,1
bfc064b8:	463c003c 	c.lt.d	$f0,$f28
bfc064bc:	45010002 	bc1t	bfc064c8 <uniform_testdata+0x560>
bfc064c0:	00000000 	nop
bfc064c4:	00006021 	move	t4,zero
bfc064c8:	1580ffa7 	bnez	t4,bfc06368 <uniform_testdata+0x400>
bfc064cc:	00000000 	nop
bfc064d0:	3c08bfc0 	lui	t0,0xbfc0
bfc064d4:	25080780 	addiu	t0,t0,1920
bfc064d8:	3c014000 	lui	at,0x4000
bfc064dc:	44816800 	mtc1	at,$f13
bfc064e0:	44806000 	mtc1	zero,$f12
bfc064e4:	03a0f021 	move	s8,sp
bfc064e8:	03a0003e 	fst	sp
bfc064ec:	03e04009 	jalr	t0,ra
bfc064f0:	00000000 	nop
bfc064f4:	463e0682 	mul.d	$f26,$f0,$f30
bfc064f8:	3c08bfc0 	lui	t0,0xbfc0
bfc064fc:	25080cf8 	addiu	t0,t0,3320
bfc06500:	3c013ff0 	lui	at,0x3ff0
bfc06504:	44811800 	mtc1	at,$f3
bfc06508:	44801000 	mtc1	zero,$f2
bfc0650c:	4638c102 	mul.d	$f4,$f24,$f24
bfc06510:	46241300 	add.d	$f12,$f2,$f4
bfc06514:	3c013fd0 	lui	at,0x3fd0
bfc06518:	44817800 	mtc1	at,$f15
bfc0651c:	44807000 	mtc1	zero,$f14
bfc06520:	03a0f021 	move	s8,sp
bfc06524:	03a0003e 	fst	sp
bfc06528:	03e04009 	jalr	t0,ra
bfc0652c:	00000000 	nop
bfc06530:	4620d183 	div.d	$f6,$f26,$f0
bfc06534:	4626a602 	mul.d	$f24,$f20,$f6
bfc06538:	0000b821 	move	s7,zero
bfc0653c:	3c08bfc0 	lui	t0,0xbfc0
bfc06540:	2508341c 	addiu	t0,t0,13340
bfc06544:	4620b306 	mov.d	$f12,$f22
bfc06548:	03a0f021 	move	s8,sp
bfc0654c:	03a0003e 	fst	sp
bfc06550:	03e04009 	jalr	t0,ra
bfc06554:	00000000 	nop
bfc06558:	46200586 	mov.d	$f22,$f0
bfc0655c:	240d0030 	li	t5,48
bfc06560:	02ad3021 	addu	a2,s5,t5
bfc06564:	240e0008 	li	t6,8
bfc06568:	02ee0018 	mult	s7,t6
bfc0656c:	00007812 	mflo	t7
bfc06570:	00cf1821 	addu	v1,a2,t7
bfc06574:	afa301c4 	sw	v1,452(sp)
bfc06578:	3c08bfc0 	lui	t0,0xbfc0
bfc0657c:	25083494 	addiu	t0,t0,13460
bfc06580:	3c01bff0 	lui	at,0xbff0
bfc06584:	44816800 	mtc1	at,$f13
bfc06588:	44806000 	mtc1	zero,$f12
bfc0658c:	3c013ff0 	lui	at,0x3ff0
bfc06590:	44817800 	mtc1	at,$f15
bfc06594:	44807000 	mtc1	zero,$f14
bfc06598:	03a0f021 	move	s8,sp
bfc0659c:	03a0003e 	fst	sp
bfc065a0:	e7b6ffe8 	swc1	$f22,-24(sp)
bfc065a4:	e7b7ffec 	swc1	$f23,-20(sp)
bfc065a8:	03e04009 	jalr	t0,ra
bfc065ac:	00000000 	nop
bfc065b0:	8fa201c4 	lw	v0,452(sp)
bfc065b4:	e4400000 	swc1	$f0,0(v0)
bfc065b8:	e4410004 	swc1	$f1,4(v0)
bfc065bc:	24180001 	li	t8,1
bfc065c0:	02f8b821 	addu	s7,s7,t8
bfc065c4:	24190003 	li	t9,3
bfc065c8:	02f9202a 	slt	a0,s7,t9
bfc065cc:	38840001 	xori	a0,a0,0x1
bfc065d0:	1080ffda 	beqz	a0,bfc0653c <uniform_testdata+0x5d4>
bfc065d4:	00000000 	nop
bfc065d8:	24010000 	li	at,0
bfc065dc:	44816800 	mtc1	at,$f13
bfc065e0:	44806000 	mtc1	zero,$f12
bfc065e4:	00002821 	move	a1,zero
bfc065e8:	24060030 	li	a2,48
bfc065ec:	02a61021 	addu	v0,s5,a2
bfc065f0:	24070008 	li	a3,8
bfc065f4:	00a70018 	mult	a1,a3
bfc065f8:	00001812 	mflo	v1
bfc065fc:	00431821 	addu	v1,v0,v1
bfc06600:	c4680000 	lwc1	$f8,0(v1)
bfc06604:	c4690004 	lwc1	$f9,4(v1)
bfc06608:	24080030 	li	t0,48
bfc0660c:	02a83821 	addu	a3,s5,t0
bfc06610:	24090008 	li	t1,8
bfc06614:	00a90018 	mult	a1,t1
bfc06618:	00005012 	mflo	t2
bfc0661c:	00ea5821 	addu	t3,a3,t2
bfc06620:	c56a0000 	lwc1	$f10,0(t3)
bfc06624:	c56b0004 	lwc1	$f11,4(t3)
bfc06628:	462a4402 	mul.d	$f16,$f8,$f10
bfc0662c:	46306300 	add.d	$f12,$f12,$f16
bfc06630:	240c0001 	li	t4,1
bfc06634:	00ac2821 	addu	a1,a1,t4
bfc06638:	240d0003 	li	t5,3
bfc0663c:	00ad702a 	slt	t6,a1,t5
bfc06640:	39ce0001 	xori	t6,t6,0x1
bfc06644:	11c0ffe8 	beqz	t6,bfc065e8 <uniform_testdata+0x680>
bfc06648:	00000000 	nop
bfc0664c:	3c013ff0 	lui	at,0x3ff0
bfc06650:	44819800 	mtc1	at,$f19
bfc06654:	44809000 	mtc1	zero,$f18
bfc06658:	240f0001 	li	t7,1
bfc0665c:	462c903c 	c.lt.d	$f18,$f12
bfc06660:	45010002 	bc1t	bfc0666c <uniform_testdata+0x704>
bfc06664:	00000000 	nop
bfc06668:	00007821 	move	t7,zero
bfc0666c:	15e0ffb2 	bnez	t7,bfc06538 <uniform_testdata+0x5d0>
bfc06670:	00000000 	nop
bfc06674:	3c08bfc0 	lui	t0,0xbfc0
bfc06678:	25080780 	addiu	t0,t0,1920
bfc0667c:	03a0f021 	move	s8,sp
bfc06680:	03a0003e 	fst	sp
bfc06684:	03e04009 	jalr	t0,ra
bfc06688:	00000000 	nop
bfc0668c:	4620c303 	div.d	$f12,$f24,$f0
bfc06690:	0000c021 	move	t8,zero
bfc06694:	24190030 	li	t9,48
bfc06698:	02b94021 	addu	t0,s5,t9
bfc0669c:	24040008 	li	a0,8
bfc066a0:	03040018 	mult	t8,a0
bfc066a4:	00002812 	mflo	a1
bfc066a8:	01053021 	addu	a2,t0,a1
bfc066ac:	24070030 	li	a3,48
bfc066b0:	02a71821 	addu	v1,s5,a3
bfc066b4:	24020008 	li	v0,8
bfc066b8:	03020018 	mult	t8,v0
bfc066bc:	00004012 	mflo	t0
bfc066c0:	00684021 	addu	t0,v1,t0
bfc066c4:	c50e0000 	lwc1	$f14,0(t0)
bfc066c8:	c50f0004 	lwc1	$f15,4(t0)
bfc066cc:	462c7002 	mul.d	$f0,$f14,$f12
bfc066d0:	e4c00000 	swc1	$f0,0(a2)
bfc066d4:	e4c10004 	swc1	$f1,4(a2)
bfc066d8:	24090001 	li	t1,1
bfc066dc:	0309c021 	addu	t8,t8,t1
bfc066e0:	240a0003 	li	t2,3
bfc066e4:	030a582a 	slt	t3,t8,t2
bfc066e8:	396b0001 	xori	t3,t3,0x1
bfc066ec:	1160ffe9 	beqz	t3,bfc06694 <uniform_testdata+0x72c>
bfc066f0:	00000000 	nop
bfc066f4:	00005021 	move	t2,zero
bfc066f8:	27ac0540 	addiu	t4,sp,1344
bfc066fc:	240d0008 	li	t5,8
bfc06700:	014d0018 	mult	t2,t5
bfc06704:	00007012 	mflo	t6
bfc06708:	018e7821 	addu	t7,t4,t6
bfc0670c:	27b80540 	addiu	t8,sp,1344
bfc06710:	24190008 	li	t9,8
bfc06714:	01590018 	mult	t2,t9
bfc06718:	00002012 	mflo	a0
bfc0671c:	03042821 	addu	a1,t8,a0
bfc06720:	c4a20000 	lwc1	$f2,0(a1)
bfc06724:	c4a30004 	lwc1	$f3,4(a1)
bfc06728:	24060030 	li	a2,48
bfc0672c:	02a64821 	addu	t1,s5,a2
bfc06730:	24070008 	li	a3,8
bfc06734:	01470018 	mult	t2,a3
bfc06738:	00001012 	mflo	v0
bfc0673c:	01221821 	addu	v1,t1,v0
bfc06740:	c4640000 	lwc1	$f4,0(v1)
bfc06744:	c4650004 	lwc1	$f5,4(v1)
bfc06748:	46241180 	add.d	$f6,$f2,$f4
bfc0674c:	e5e60000 	swc1	$f6,0(t7)
bfc06750:	e5e70004 	swc1	$f7,4(t7)
bfc06754:	24080001 	li	t0,1
bfc06758:	01485021 	addu	t2,t2,t0
bfc0675c:	24090003 	li	t1,3
bfc06760:	0149582a 	slt	t3,t2,t1
bfc06764:	396b0001 	xori	t3,t3,0x1
bfc06768:	1160ffe3 	beqz	t3,bfc066f8 <uniform_testdata+0x790>
bfc0676c:	00000000 	nop
bfc06770:	240c0001 	li	t4,1
bfc06774:	02ccb021 	addu	s6,s6,t4
bfc06778:	02d0682a 	slt	t5,s6,s0
bfc0677c:	39ad0001 	xori	t5,t5,0x1
bfc06780:	11a0fe5e 	beqz	t5,bfc060fc <uniform_testdata+0x194>
bfc06784:	00000000 	nop
bfc06788:	0bf019e5 	j	bfc06794 <uniform_testdata+0x82c>
bfc0678c:	00000000 	nop
bfc06790:	0000b021 	move	s6,zero
bfc06794:	240e0080 	li	t6,128
bfc06798:	026e7821 	addu	t7,s3,t6
bfc0679c:	24180000 	li	t8,0
bfc067a0:	adf80000 	sw	t8,0(t7)
bfc067a4:	27b90558 	addiu	t9,sp,1368
bfc067a8:	24040080 	li	a0,128
bfc067ac:	02842821 	addu	a1,s4,a0
bfc067b0:	8ca60000 	lw	a2,0(a1)
bfc067b4:	af260000 	sw	a2,0(t9)
bfc067b8:	27a7055c 	addiu	a3,sp,1372
bfc067bc:	acf30000 	sw	s3,0(a3)
bfc067c0:	27a20528 	addiu	v0,sp,1320
bfc067c4:	26430000 	addiu	v1,s2,0
bfc067c8:	8c480000 	lw	t0,0(v0)
bfc067cc:	8c490004 	lw	t1,4(v0)
bfc067d0:	8c4a0008 	lw	t2,8(v0)
bfc067d4:	ac680000 	sw	t0,0(v1)
bfc067d8:	ac690004 	sw	t1,4(v1)
bfc067dc:	ac6a0008 	sw	t2,8(v1)
bfc067e0:	8c4b000c 	lw	t3,12(v0)
bfc067e4:	8c4c0010 	lw	t4,16(v0)
bfc067e8:	8c4d0014 	lw	t5,20(v0)
bfc067ec:	ac6b000c 	sw	t3,12(v1)
bfc067f0:	ac6c0010 	sw	t4,16(v1)
bfc067f4:	ac6d0014 	sw	t5,20(v1)
bfc067f8:	8c4e0018 	lw	t6,24(v0)
bfc067fc:	8c4f001c 	lw	t7,28(v0)
bfc06800:	8c580020 	lw	t8,32(v0)
bfc06804:	ac6e0018 	sw	t6,24(v1)
bfc06808:	ac6f001c 	sw	t7,28(v1)
bfc0680c:	ac780020 	sw	t8,32(v1)
bfc06810:	8c590024 	lw	t9,36(v0)
bfc06814:	8c440028 	lw	a0,40(v0)
bfc06818:	8c45002c 	lw	a1,44(v0)
bfc0681c:	ac790024 	sw	t9,36(v1)
bfc06820:	ac640028 	sw	a0,40(v1)
bfc06824:	ac65002c 	sw	a1,44(v1)
bfc06828:	8c460030 	lw	a2,48(v0)
bfc0682c:	8c470034 	lw	a3,52(v0)
bfc06830:	ac660030 	sw	a2,48(v1)
bfc06834:	ac670034 	sw	a3,52(v1)
bfc06838:	4bf01a0f 	cqip	bfc0683c <uniform_testdata+0x8d4>
bfc0683c:	53f01a0f 	pslice_entry	bfc0683c <uniform_testdata+0x8d4>
bfc06840:	57f01a0f 	pslice_exit	bfc0683c <uniform_testdata+0x8d4>
bfc06844:	8fbf0004 	lw	ra,4(sp)
bfc06848:	8fb00008 	lw	s0,8(sp)
bfc0684c:	8fb1000c 	lw	s1,12(sp)
bfc06850:	8fb20010 	lw	s2,16(sp)
bfc06854:	8fb30014 	lw	s3,20(sp)
bfc06858:	8fb40018 	lw	s4,24(sp)
bfc0685c:	8fb5001c 	lw	s5,28(sp)
bfc06860:	8fb60020 	lw	s6,32(sp)
bfc06864:	8fb70024 	lw	s7,36(sp)
bfc06868:	c7b40028 	lwc1	$f20,40(sp)
bfc0686c:	c7b5002c 	lwc1	$f21,44(sp)
bfc06870:	c7b60030 	lwc1	$f22,48(sp)
bfc06874:	c7b70034 	lwc1	$f23,52(sp)
bfc06878:	c7b80038 	lwc1	$f24,56(sp)
bfc0687c:	c7b9003c 	lwc1	$f25,60(sp)
bfc06880:	c7ba0040 	lwc1	$f26,64(sp)
bfc06884:	c7bb0044 	lwc1	$f27,68(sp)
bfc06888:	c7bc0048 	lwc1	$f28,72(sp)
bfc0688c:	c7bd004c 	lwc1	$f29,76(sp)
bfc06890:	c7be0050 	lwc1	$f30,80(sp)
bfc06894:	c7bf0054 	lwc1	$f31,84(sp)
bfc06898:	8fbd0000 	lw	sp,0(sp)
bfc0689c:	03e00008 	jr	ra
bfc068a0:	00000000 	nop

bfc068a4 <stepsystem>:
bfc068a4:	b3f01a32 	spawn	bfc068c8 <stepsystem+0x24>
bfc068a8:	27bdff90 	addiu	sp,sp,-112
bfc068ac:	0000003f 	ust
bfc068b0:	afbf0004 	sw	ra,4(sp)
bfc068b4:	afb00008 	sw	s0,8(sp)
bfc068b8:	afb1000c 	sw	s1,12(sp)
bfc068bc:	afb20010 	sw	s2,16(sp)
bfc068c0:	afbe0000 	sw	s8,0(sp)
bfc068c4:	4bf01a32 	cqip	bfc068c8 <stepsystem+0x24>
bfc068c8:	53f01a32 	pslice_entry	bfc068c8 <stepsystem+0x24>
bfc068cc:	27bdff90 	addiu	sp,sp,-112
bfc068d0:	57f01a32 	pslice_exit	bfc068c8 <stepsystem+0x24>
bfc068d4:	00808821 	move	s1,a0
bfc068d8:	00a08021 	move	s0,a1
bfc068dc:	240a0020 	li	t2,32
bfc068e0:	022a5821 	addu	t3,s1,t2
bfc068e4:	8d6c0000 	lw	t4,0(t3)
bfc068e8:	240d0000 	li	t5,0
bfc068ec:	018d7026 	xor	t6,t4,t5
bfc068f0:	000e702b 	sltu	t6,zero,t6
bfc068f4:	11c0000e 	beqz	t6,bfc06930 <stepsystem+0x8c>
bfc068f8:	00000000 	nop
bfc068fc:	3c08bfc0 	lui	t0,0xbfc0
bfc06900:	25087444 	addiu	t0,t0,29764
bfc06904:	240f0020 	li	t7,32
bfc06908:	022fc021 	addu	t8,s1,t7
bfc0690c:	8f040000 	lw	a0,0(t8)
bfc06910:	03a0f021 	move	s8,sp
bfc06914:	03a0003e 	fst	sp
bfc06918:	03e04009 	jalr	t0,ra
bfc0691c:	00000000 	nop
bfc06920:	24190020 	li	t9,32
bfc06924:	02392021 	addu	a0,s1,t9
bfc06928:	24050000 	li	a1,0
bfc0692c:	ac850000 	sw	a1,0(a0)
bfc06930:	3c08bfc0 	lui	t0,0xbfc0
bfc06934:	250841a8 	addiu	t0,t0,16808
bfc06938:	00001021 	move	v0,zero
bfc0693c:	02402021 	move	a0,s2
bfc06940:	8f85055c 	lw	a1,1372(gp)
bfc06944:	02203021 	move	a2,s1
bfc06948:	02003821 	move	a3,s0
bfc0694c:	03a0f021 	move	s8,sp
bfc06950:	03a0003e 	fst	sp
bfc06954:	afa2ffec 	sw	v0,-20(sp)
bfc06958:	03e04009 	jalr	t0,ra
bfc0695c:	00000000 	nop
bfc06960:	24070020 	li	a3,32
bfc06964:	02271821 	addu	v1,s1,a3
bfc06968:	ac620000 	sw	v0,0(v1)
bfc0696c:	3c08bfc0 	lui	t0,0xbfc0
bfc06970:	25084064 	addiu	t0,t0,16484
bfc06974:	02202021 	move	a0,s1
bfc06978:	02002821 	move	a1,s0
bfc0697c:	03a0f021 	move	s8,sp
bfc06980:	03a0003e 	fst	sp
bfc06984:	03e04009 	jalr	t0,ra
bfc06988:	00000000 	nop
bfc0698c:	8fbf0004 	lw	ra,4(sp)
bfc06990:	8fb00008 	lw	s0,8(sp)
bfc06994:	8fb1000c 	lw	s1,12(sp)
bfc06998:	8fb20010 	lw	s2,16(sp)
bfc0699c:	8fbd0000 	lw	sp,0(sp)
bfc069a0:	03e00008 	jr	ra
bfc069a4:	00000000 	nop

bfc069a8 <old_main>:
bfc069a8:	b3f01a74 	spawn	bfc069d0 <old_main+0x28>
bfc069ac:	27bdf8c0 	addiu	sp,sp,-1856
bfc069b0:	0000003f 	ust
bfc069b4:	afbf0004 	sw	ra,4(sp)
bfc069b8:	afb00008 	sw	s0,8(sp)
bfc069bc:	afb1000c 	sw	s1,12(sp)
bfc069c0:	afb20010 	sw	s2,16(sp)
bfc069c4:	afb30014 	sw	s3,20(sp)
bfc069c8:	afbe0000 	sw	s8,0(sp)
bfc069cc:	4bf01a74 	cqip	bfc069d0 <old_main+0x28>
bfc069d0:	53f01a74 	pslice_entry	bfc069d0 <old_main+0x28>
bfc069d4:	27bdf8c0 	addiu	sp,sp,-1856
bfc069d8:	57f01a74 	pslice_exit	bfc069d0 <old_main+0x28>
bfc069dc:	b3f01c7c 	spawn	bfc071f0 <old_main+0x848>
bfc069e0:	24120000 	li	s2,0
bfc069e4:	00009821 	move	s3,zero
bfc069e8:	240f0040 	li	t7,64
bfc069ec:	8f980564 	lw	t8,1380(gp)
bfc069f0:	17000002 	bnez	t8,bfc069fc <old_main+0x54>
bfc069f4:	01f8001a 	div	zero,t7,t8
bfc069f8:	0007000d 	break	0x7
bfc069fc:	2401ffff 	li	at,-1
bfc06a00:	17010004 	bne	t8,at,bfc06a14 <old_main+0x6c>
bfc06a04:	3c018000 	lui	at,0x8000
bfc06a08:	15e10002 	bne	t7,at,bfc06a14 <old_main+0x6c>
bfc06a0c:	00000000 	nop
bfc06a10:	0006000d 	break	0x6
bfc06a14:	00008812 	mflo	s1
bfc06a18:	3c08bfc0 	lui	t0,0xbfc0
bfc06a1c:	2508751c 	addiu	t0,t0,29980
bfc06a20:	2404007b 	li	a0,123
bfc06a24:	03a0f021 	move	s8,sp
bfc06a28:	03a0003e 	fst	sp
bfc06a2c:	03e04009 	jalr	t0,ra
bfc06a30:	00000000 	nop
bfc06a34:	3c08bfc0 	lui	t0,0xbfc0
bfc06a38:	25080310 	addiu	t0,t0,784
bfc06a3c:	24040228 	li	a0,552
bfc06a40:	03a0f021 	move	s8,sp
bfc06a44:	03a0003e 	fst	sp
bfc06a48:	03e04009 	jalr	t0,ra
bfc06a4c:	00000000 	nop
bfc06a50:	00408021 	move	s0,v0
bfc06a54:	24190020 	li	t9,32
bfc06a58:	02192021 	addu	a0,s0,t9
bfc06a5c:	24050000 	li	a1,0
bfc06a60:	ac850000 	sw	a1,0(a0)
bfc06a64:	00003021 	move	a2,zero
bfc06a68:	02061821 	addu	v1,s0,a2
bfc06a6c:	3c01c000 	lui	at,0xc000
bfc06a70:	44818800 	mtc1	at,$f17
bfc06a74:	44808000 	mtc1	zero,$f16
bfc06a78:	e4700000 	swc1	$f16,0(v1)
bfc06a7c:	e4710004 	swc1	$f17,4(v1)
bfc06a80:	24070008 	li	a3,8
bfc06a84:	02071021 	addu	v0,s0,a3
bfc06a88:	3c01c000 	lui	at,0xc000
bfc06a8c:	44819800 	mtc1	at,$f19
bfc06a90:	44809000 	mtc1	zero,$f18
bfc06a94:	e4520000 	swc1	$f18,0(v0)
bfc06a98:	e4530004 	swc1	$f19,4(v0)
bfc06a9c:	24030010 	li	v1,16
bfc06aa0:	02034021 	addu	t0,s0,v1
bfc06aa4:	3c01c000 	lui	at,0xc000
bfc06aa8:	44816800 	mtc1	at,$f13
bfc06aac:	44806000 	mtc1	zero,$f12
bfc06ab0:	e50c0000 	swc1	$f12,0(t0)
bfc06ab4:	e50d0004 	swc1	$f13,4(t0)
bfc06ab8:	24090018 	li	t1,24
bfc06abc:	02095021 	addu	t2,s0,t1
bfc06ac0:	3c014010 	lui	at,0x4010
bfc06ac4:	44817800 	mtc1	at,$f15
bfc06ac8:	44807000 	mtc1	zero,$f14
bfc06acc:	e54e0000 	swc1	$f14,0(t2)
bfc06ad0:	e54f0004 	swc1	$f15,4(t2)
bfc06ad4:	00005821 	move	t3,zero
bfc06ad8:	27ac0710 	addiu	t4,sp,1808
bfc06adc:	240d0008 	li	t5,8
bfc06ae0:	016d0018 	mult	t3,t5
bfc06ae4:	00007012 	mflo	t6
bfc06ae8:	018e7821 	addu	t7,t4,t6
bfc06aec:	24010000 	li	at,0
bfc06af0:	44810800 	mtc1	at,$f1
bfc06af4:	44800000 	mtc1	zero,$f0
bfc06af8:	e5e00000 	swc1	$f0,0(t7)
bfc06afc:	e5e10004 	swc1	$f1,4(t7)
bfc06b00:	24180001 	li	t8,1
bfc06b04:	01785821 	addu	t3,t3,t8
bfc06b08:	24190003 	li	t9,3
bfc06b0c:	0179202a 	slt	a0,t3,t9
bfc06b10:	38840001 	xori	a0,a0,0x1
bfc06b14:	1080fff0 	beqz	a0,bfc06ad8 <old_main+0x130>
bfc06b18:	00000000 	nop
bfc06b1c:	00002821 	move	a1,zero
bfc06b20:	27a606f8 	addiu	a2,sp,1784
bfc06b24:	24070008 	li	a3,8
bfc06b28:	00a70018 	mult	a1,a3
bfc06b2c:	00001012 	mflo	v0
bfc06b30:	00c21821 	addu	v1,a2,v0
bfc06b34:	24010000 	li	at,0
bfc06b38:	44811800 	mtc1	at,$f3
bfc06b3c:	44801000 	mtc1	zero,$f2
bfc06b40:	e4620000 	swc1	$f2,0(v1)
bfc06b44:	e4630004 	swc1	$f3,4(v1)
bfc06b48:	24080001 	li	t0,1
bfc06b4c:	00a82821 	addu	a1,a1,t0
bfc06b50:	24090003 	li	t1,3
bfc06b54:	00a9502a 	slt	t2,a1,t1
bfc06b58:	394a0001 	xori	t2,t2,0x1
bfc06b5c:	1140fff0 	beqz	t2,bfc06b20 <old_main+0x178>
bfc06b60:	00000000 	nop
bfc06b64:	00009821 	move	s3,zero
bfc06b68:	240b0020 	li	t3,32
bfc06b6c:	8f8c0564 	lw	t4,1380(gp)
bfc06b70:	15800002 	bnez	t4,bfc06b7c <old_main+0x1d4>
bfc06b74:	016c001a 	div	zero,t3,t4
bfc06b78:	0007000d 	break	0x7
bfc06b7c:	2401ffff 	li	at,-1
bfc06b80:	15810004 	bne	t4,at,bfc06b94 <old_main+0x1ec>
bfc06b84:	3c018000 	lui	at,0x8000
bfc06b88:	15610002 	bne	t3,at,bfc06b94 <old_main+0x1ec>
bfc06b8c:	00000000 	nop
bfc06b90:	0006000d 	break	0x6
bfc06b94:	00006812 	mflo	t5
bfc06b98:	15a00002 	bnez	t5,bfc06ba4 <old_main+0x1fc>
bfc06b9c:	026d001a 	div	zero,s3,t5
bfc06ba0:	0007000d 	break	0x7
bfc06ba4:	2401ffff 	li	at,-1
bfc06ba8:	15a10004 	bne	t5,at,bfc06bbc <old_main+0x214>
bfc06bac:	3c018000 	lui	at,0x8000
bfc06bb0:	16610002 	bne	s3,at,bfc06bbc <old_main+0x214>
bfc06bb4:	00000000 	nop
bfc06bb8:	0006000d 	break	0x6
bfc06bbc:	00002812 	mflo	a1
bfc06bc0:	3c08bfc0 	lui	t0,0xbfc0
bfc06bc4:	25085f68 	addiu	t0,t0,24424
bfc06bc8:	240e0020 	li	t6,32
bfc06bcc:	8f8f055c 	lw	t7,1372(gp)
bfc06bd0:	15c00002 	bnez	t6,bfc06bdc <old_main+0x234>
bfc06bd4:	01ee001a 	div	zero,t7,t6
bfc06bd8:	0007000d 	break	0x7
bfc06bdc:	2401ffff 	li	at,-1
bfc06be0:	15c10004 	bne	t6,at,bfc06bf4 <old_main+0x24c>
bfc06be4:	3c018000 	lui	at,0x8000
bfc06be8:	15e10002 	bne	t7,at,bfc06bf4 <old_main+0x24c>
bfc06bec:	00000000 	nop
bfc06bf0:	0006000d 	break	0x6
bfc06bf4:	00003012 	mflo	a2
bfc06bf8:	24180001 	li	t8,1
bfc06bfc:	02783821 	addu	a3,s3,t8
bfc06c00:	27a404a8 	addiu	a0,sp,1192
bfc06c04:	03a0f021 	move	s8,sp
bfc06c08:	03a0003e 	fst	sp
bfc06c0c:	03e04009 	jalr	t0,ra
bfc06c10:	00000000 	nop
bfc06c14:	24190024 	li	t9,36
bfc06c18:	02194021 	addu	t0,s0,t9
bfc06c1c:	24040004 	li	a0,4
bfc06c20:	02640018 	mult	s3,a0
bfc06c24:	00002812 	mflo	a1
bfc06c28:	01053021 	addu	a2,t0,a1
bfc06c2c:	27a704d8 	addiu	a3,sp,1240
bfc06c30:	8ce20000 	lw	v0,0(a3)
bfc06c34:	acc20000 	sw	v0,0(a2)
bfc06c38:	24030000 	li	v1,0
bfc06c3c:	02434026 	xor	t0,s2,v1
bfc06c40:	0008402b 	sltu	t0,zero,t0
bfc06c44:	11000006 	beqz	t0,bfc06c60 <old_main+0x2b8>
bfc06c48:	00000000 	nop
bfc06c4c:	24090080 	li	t1,128
bfc06c50:	02495021 	addu	t2,s2,t1
bfc06c54:	27ab04d8 	addiu	t3,sp,1240
bfc06c58:	8d6c0000 	lw	t4,0(t3)
bfc06c5c:	ad4c0000 	sw	t4,0(t2)
bfc06c60:	27ad04dc 	addiu	t5,sp,1244
bfc06c64:	8db20000 	lw	s2,0(t5)
bfc06c68:	00007021 	move	t6,zero
bfc06c6c:	27af0710 	addiu	t7,sp,1808
bfc06c70:	24180008 	li	t8,8
bfc06c74:	01d80018 	mult	t6,t8
bfc06c78:	0000c812 	mflo	t9
bfc06c7c:	01f92021 	addu	a0,t7,t9
bfc06c80:	27a50710 	addiu	a1,sp,1808
bfc06c84:	24060008 	li	a2,8
bfc06c88:	01c60018 	mult	t6,a2
bfc06c8c:	00003812 	mflo	a3
bfc06c90:	00a71021 	addu	v0,a1,a3
bfc06c94:	c4440000 	lwc1	$f4,0(v0)
bfc06c98:	c4450004 	lwc1	$f5,4(v0)
bfc06c9c:	27a304a8 	addiu	v1,sp,1192
bfc06ca0:	24080008 	li	t0,8
bfc06ca4:	01c80018 	mult	t6,t0
bfc06ca8:	00004812 	mflo	t1
bfc06cac:	00695021 	addu	t2,v1,t1
bfc06cb0:	c5460000 	lwc1	$f6,0(t2)
bfc06cb4:	c5470004 	lwc1	$f7,4(t2)
bfc06cb8:	46262200 	add.d	$f8,$f4,$f6
bfc06cbc:	e4880000 	swc1	$f8,0(a0)
bfc06cc0:	e4890004 	swc1	$f9,4(a0)
bfc06cc4:	240b0001 	li	t3,1
bfc06cc8:	01cb7021 	addu	t6,t6,t3
bfc06ccc:	240c0003 	li	t4,3
bfc06cd0:	01cc682a 	slt	t5,t6,t4
bfc06cd4:	39ad0001 	xori	t5,t5,0x1
bfc06cd8:	11a0ffe4 	beqz	t5,bfc06c6c <old_main+0x2c4>
bfc06cdc:	00000000 	nop
bfc06ce0:	00007021 	move	t6,zero
bfc06ce4:	27af06f8 	addiu	t7,sp,1784
bfc06ce8:	24180008 	li	t8,8
bfc06cec:	01d80018 	mult	t6,t8
bfc06cf0:	0000c812 	mflo	t9
bfc06cf4:	01f92021 	addu	a0,t7,t9
bfc06cf8:	27a506f8 	addiu	a1,sp,1784
bfc06cfc:	24060008 	li	a2,8
bfc06d00:	01c60018 	mult	t6,a2
bfc06d04:	00003812 	mflo	a3
bfc06d08:	00a71021 	addu	v0,a1,a3
bfc06d0c:	c44a0000 	lwc1	$f10,0(v0)
bfc06d10:	c44b0004 	lwc1	$f11,4(v0)
bfc06d14:	27a304c0 	addiu	v1,sp,1216
bfc06d18:	24080008 	li	t0,8
bfc06d1c:	01c80018 	mult	t6,t0
bfc06d20:	00004812 	mflo	t1
bfc06d24:	00695021 	addu	t2,v1,t1
bfc06d28:	c5500000 	lwc1	$f16,0(t2)
bfc06d2c:	c5510004 	lwc1	$f17,4(t2)
bfc06d30:	46305480 	add.d	$f18,$f10,$f16
bfc06d34:	e4920000 	swc1	$f18,0(a0)
bfc06d38:	e4930004 	swc1	$f19,4(a0)
bfc06d3c:	240b0001 	li	t3,1
bfc06d40:	01cb7021 	addu	t6,t6,t3
bfc06d44:	240c0003 	li	t4,3
bfc06d48:	01cc682a 	slt	t5,t6,t4
bfc06d4c:	39ad0001 	xori	t5,t5,0x1
bfc06d50:	11a0ffe4 	beqz	t5,bfc06ce4 <old_main+0x33c>
bfc06d54:	00000000 	nop
bfc06d58:	240e0001 	li	t6,1
bfc06d5c:	026e9821 	addu	s3,s3,t6
bfc06d60:	240f0020 	li	t7,32
bfc06d64:	026fc02a 	slt	t8,s3,t7
bfc06d68:	3b180001 	xori	t8,t8,0x1
bfc06d6c:	1300ff7e 	beqz	t8,bfc06b68 <old_main+0x1c0>
bfc06d70:	00000000 	nop
bfc06d74:	3c08bfc0 	lui	t0,0xbfc0
bfc06d78:	250803cc 	addiu	t0,t0,972
bfc06d7c:	278404a3 	addiu	a0,gp,1187
bfc06d80:	03a0f021 	move	s8,sp
bfc06d84:	03a0003e 	fst	sp
bfc06d88:	03e04009 	jalr	t0,ra
bfc06d8c:	00000000 	nop
bfc06d90:	0000c821 	move	t9,zero
bfc06d94:	27a40710 	addiu	a0,sp,1808
bfc06d98:	24050008 	li	a1,8
bfc06d9c:	03250018 	mult	t9,a1
bfc06da0:	00003012 	mflo	a2
bfc06da4:	00863821 	addu	a3,a0,a2
bfc06da8:	27a20710 	addiu	v0,sp,1808
bfc06dac:	24030008 	li	v1,8
bfc06db0:	03230018 	mult	t9,v1
bfc06db4:	00004012 	mflo	t0
bfc06db8:	00484821 	addu	t1,v0,t0
bfc06dbc:	c52c0000 	lwc1	$f12,0(t1)
bfc06dc0:	c52d0004 	lwc1	$f13,4(t1)
bfc06dc4:	8f8a055c 	lw	t2,1372(gp)
bfc06dc8:	448a7000 	mtc1	t2,$f14
bfc06dcc:	46807021 	cvt.d.w	$f0,$f14
bfc06dd0:	46206083 	div.d	$f2,$f12,$f0
bfc06dd4:	e4e20000 	swc1	$f2,0(a3)
bfc06dd8:	e4e30004 	swc1	$f3,4(a3)
bfc06ddc:	240b0001 	li	t3,1
bfc06de0:	032bc821 	addu	t9,t9,t3
bfc06de4:	240c0003 	li	t4,3
bfc06de8:	032c682a 	slt	t5,t9,t4
bfc06dec:	39ad0001 	xori	t5,t5,0x1
bfc06df0:	11a0ffe8 	beqz	t5,bfc06d94 <old_main+0x3ec>
bfc06df4:	00000000 	nop
bfc06df8:	00007021 	move	t6,zero
bfc06dfc:	27af06f8 	addiu	t7,sp,1784
bfc06e00:	24180008 	li	t8,8
bfc06e04:	01d80018 	mult	t6,t8
bfc06e08:	0000c812 	mflo	t9
bfc06e0c:	01f92021 	addu	a0,t7,t9
bfc06e10:	27a506f8 	addiu	a1,sp,1784
bfc06e14:	24060008 	li	a2,8
bfc06e18:	01c60018 	mult	t6,a2
bfc06e1c:	00003812 	mflo	a3
bfc06e20:	00a71021 	addu	v0,a1,a3
bfc06e24:	c4440000 	lwc1	$f4,0(v0)
bfc06e28:	c4450004 	lwc1	$f5,4(v0)
bfc06e2c:	8f83055c 	lw	v1,1372(gp)
bfc06e30:	44833000 	mtc1	v1,$f6
bfc06e34:	46803221 	cvt.d.w	$f8,$f6
bfc06e38:	46282283 	div.d	$f10,$f4,$f8
bfc06e3c:	e48a0000 	swc1	$f10,0(a0)
bfc06e40:	e48b0004 	swc1	$f11,4(a0)
bfc06e44:	24080001 	li	t0,1
bfc06e48:	01c87021 	addu	t6,t6,t0
bfc06e4c:	24090003 	li	t1,3
bfc06e50:	01c9502a 	slt	t2,t6,t1
bfc06e54:	394a0001 	xori	t2,t2,0x1
bfc06e58:	1140ffe8 	beqz	t2,bfc06dfc <old_main+0x454>
bfc06e5c:	00000000 	nop
bfc06e60:	00009821 	move	s3,zero
bfc06e64:	27ab05e8 	addiu	t3,sp,1512
bfc06e68:	240c0004 	li	t4,4
bfc06e6c:	026c0018 	mult	s3,t4
bfc06e70:	00006812 	mflo	t5
bfc06e74:	016d7021 	addu	t6,t3,t5
bfc06e78:	00007821 	move	t7,zero
bfc06e7c:	adcf0000 	sw	t7,0(t6)
bfc06e80:	27b804e8 	addiu	t8,sp,1256
bfc06e84:	24190004 	li	t9,4
bfc06e88:	02790018 	mult	s3,t9
bfc06e8c:	00002012 	mflo	a0
bfc06e90:	03042821 	addu	a1,t8,a0
bfc06e94:	24060000 	li	a2,0
bfc06e98:	aca60000 	sw	a2,0(a1)
bfc06e9c:	24070001 	li	a3,1
bfc06ea0:	02679821 	addu	s3,s3,a3
bfc06ea4:	24020040 	li	v0,64
bfc06ea8:	0262182a 	slt	v1,s3,v0
bfc06eac:	38630001 	xori	v1,v1,0x1
bfc06eb0:	1060ffec 	beqz	v1,bfc06e64 <old_main+0x4bc>
bfc06eb4:	00000000 	nop
bfc06eb8:	24080024 	li	t0,36
bfc06ebc:	02084821 	addu	t1,s0,t0
bfc06ec0:	8d320000 	lw	s2,0(t1)
bfc06ec4:	24090000 	li	t1,0
bfc06ec8:	02495026 	xor	t2,s2,t1
bfc06ecc:	000a502b 	sltu	t2,zero,t2
bfc06ed0:	11400094 	beqz	t2,bfc07124 <old_main+0x77c>
bfc06ed4:	00000000 	nop
bfc06ed8:	00006021 	move	t4,zero
bfc06edc:	240d0010 	li	t5,16
bfc06ee0:	024d5821 	addu	t3,s2,t5
bfc06ee4:	240d0008 	li	t5,8
bfc06ee8:	018d0018 	mult	t4,t5
bfc06eec:	00007012 	mflo	t6
bfc06ef0:	016e7821 	addu	t7,t3,t6
bfc06ef4:	24180010 	li	t8,16
bfc06ef8:	02585021 	addu	t2,s2,t8
bfc06efc:	24190008 	li	t9,8
bfc06f00:	01990018 	mult	t4,t9
bfc06f04:	00002012 	mflo	a0
bfc06f08:	01442821 	addu	a1,t2,a0
bfc06f0c:	c4b00000 	lwc1	$f16,0(a1)
bfc06f10:	c4b10004 	lwc1	$f17,4(a1)
bfc06f14:	27a60710 	addiu	a2,sp,1808
bfc06f18:	24070008 	li	a3,8
bfc06f1c:	01870018 	mult	t4,a3
bfc06f20:	00001012 	mflo	v0
bfc06f24:	00c21821 	addu	v1,a2,v0
bfc06f28:	c4720000 	lwc1	$f18,0(v1)
bfc06f2c:	c4730004 	lwc1	$f19,4(v1)
bfc06f30:	46328301 	sub.d	$f12,$f16,$f18
bfc06f34:	e5ec0000 	swc1	$f12,0(t7)
bfc06f38:	e5ed0004 	swc1	$f13,4(t7)
bfc06f3c:	24080001 	li	t0,1
bfc06f40:	01886021 	addu	t4,t4,t0
bfc06f44:	24090003 	li	t1,3
bfc06f48:	0189502a 	slt	t2,t4,t1
bfc06f4c:	394a0001 	xori	t2,t2,0x1
bfc06f50:	1140ffe2 	beqz	t2,bfc06edc <old_main+0x534>
bfc06f54:	00000000 	nop
bfc06f58:	00005821 	move	t3,zero
bfc06f5c:	240c0030 	li	t4,48
bfc06f60:	024c6821 	addu	t5,s2,t4
bfc06f64:	240e0008 	li	t6,8
bfc06f68:	016e0018 	mult	t3,t6
bfc06f6c:	00007012 	mflo	t6
bfc06f70:	01ae7821 	addu	t7,t5,t6
bfc06f74:	24180030 	li	t8,48
bfc06f78:	02586021 	addu	t4,s2,t8
bfc06f7c:	24190008 	li	t9,8
bfc06f80:	01790018 	mult	t3,t9
bfc06f84:	00002012 	mflo	a0
bfc06f88:	01842821 	addu	a1,t4,a0
bfc06f8c:	c4ae0000 	lwc1	$f14,0(a1)
bfc06f90:	c4af0004 	lwc1	$f15,4(a1)
bfc06f94:	27a606f8 	addiu	a2,sp,1784
bfc06f98:	24070008 	li	a3,8
bfc06f9c:	01670018 	mult	t3,a3
bfc06fa0:	00001012 	mflo	v0
bfc06fa4:	00c21821 	addu	v1,a2,v0
bfc06fa8:	c4600000 	lwc1	$f0,0(v1)
bfc06fac:	c4610004 	lwc1	$f1,4(v1)
bfc06fb0:	46207081 	sub.d	$f2,$f14,$f0
bfc06fb4:	e5e20000 	swc1	$f2,0(t7)
bfc06fb8:	e5e30004 	swc1	$f3,4(t7)
bfc06fbc:	24080001 	li	t0,1
bfc06fc0:	01685821 	addu	t3,t3,t0
bfc06fc4:	24090003 	li	t1,3
bfc06fc8:	0169502a 	slt	t2,t3,t1
bfc06fcc:	394a0001 	xori	t2,t2,0x1
bfc06fd0:	1140ffe2 	beqz	t2,bfc06f5c <old_main+0x5b4>
bfc06fd4:	00000000 	nop
bfc06fd8:	3c08bfc0 	lui	t0,0xbfc0
bfc06fdc:	25083d48 	addiu	t0,t0,15688
bfc06fe0:	27a40480 	addiu	a0,sp,1152
bfc06fe4:	02402821 	move	a1,s2
bfc06fe8:	02003021 	move	a2,s0
bfc06fec:	03a0f021 	move	s8,sp
bfc06ff0:	03a0003e 	fst	sp
bfc06ff4:	03e04009 	jalr	t0,ra
bfc06ff8:	00000000 	nop
bfc06ffc:	3c08bfc0 	lui	t0,0xbfc0
bfc07000:	25087594 	addiu	t0,t0,30100
bfc07004:	3c0b2000 	lui	t3,0x2000
bfc07008:	27ac0480 	addiu	t4,sp,1152
bfc0700c:	8d840000 	lw	a0,0(t4)
bfc07010:	8d850004 	lw	a1,4(t4)
bfc07014:	8d860008 	lw	a2,8(t4)
bfc07018:	8d87000c 	lw	a3,12(t4)
bfc0701c:	03a0f021 	move	s8,sp
bfc07020:	03a0003e 	fst	sp
bfc07024:	afabffec 	sw	t3,-20(sp)
bfc07028:	03e04009 	jalr	t0,ra
bfc0702c:	00000000 	nop
bfc07030:	240d0003 	li	t5,3
bfc07034:	01a29804 	sllv	s3,v0,t5
bfc07038:	3c08bfc0 	lui	t0,0xbfc0
bfc0703c:	25087594 	addiu	t0,t0,30100
bfc07040:	3c0e1000 	lui	t6,0x1000
bfc07044:	27af0480 	addiu	t7,sp,1152
bfc07048:	8de40000 	lw	a0,0(t7)
bfc0704c:	8de50004 	lw	a1,4(t7)
bfc07050:	8de60008 	lw	a2,8(t7)
bfc07054:	8de7000c 	lw	a3,12(t7)
bfc07058:	03a0f021 	move	s8,sp
bfc0705c:	03a0003e 	fst	sp
bfc07060:	afaeffec 	sw	t6,-20(sp)
bfc07064:	03e04009 	jalr	t0,ra
bfc07068:	00000000 	nop
bfc0706c:	02629821 	addu	s3,s3,v0
bfc07070:	16200002 	bnez	s1,bfc0707c <old_main+0x6d4>
bfc07074:	0271001a 	div	zero,s3,s1
bfc07078:	0007000d 	break	0x7
bfc0707c:	2401ffff 	li	at,-1
bfc07080:	16210004 	bne	s1,at,bfc07094 <old_main+0x6ec>
bfc07084:	3c018000 	lui	at,0x8000
bfc07088:	16610002 	bne	s3,at,bfc07094 <old_main+0x6ec>
bfc0708c:	00000000 	nop
bfc07090:	0006000d 	break	0x6
bfc07094:	00009812 	mflo	s3
bfc07098:	27b805e8 	addiu	t8,sp,1512
bfc0709c:	24190004 	li	t9,4
bfc070a0:	02790018 	mult	s3,t9
bfc070a4:	00002012 	mflo	a0
bfc070a8:	03042821 	addu	a1,t8,a0
bfc070ac:	8ca60000 	lw	a2,0(a1)
bfc070b0:	24070001 	li	a3,1
bfc070b4:	00c71021 	addu	v0,a2,a3
bfc070b8:	aca20000 	sw	v0,0(a1)
bfc070bc:	24030084 	li	v1,132
bfc070c0:	02434021 	addu	t0,s2,v1
bfc070c4:	27a904e8 	addiu	t1,sp,1256
bfc070c8:	240a0004 	li	t2,4
bfc070cc:	026a0018 	mult	s3,t2
bfc070d0:	00005812 	mflo	t3
bfc070d4:	012b6021 	addu	t4,t1,t3
bfc070d8:	8d8d0000 	lw	t5,0(t4)
bfc070dc:	ad0d0000 	sw	t5,0(t0)
bfc070e0:	27ae04e8 	addiu	t6,sp,1256
bfc070e4:	240f0004 	li	t7,4
bfc070e8:	026f0018 	mult	s3,t7
bfc070ec:	0000c012 	mflo	t8
bfc070f0:	01d8c821 	addu	t9,t6,t8
bfc070f4:	af320000 	sw	s2,0(t9)
bfc070f8:	24040028 	li	a0,40
bfc070fc:	02442821 	addu	a1,s2,a0
bfc07100:	acb30000 	sw	s3,0(a1)
bfc07104:	24060080 	li	a2,128
bfc07108:	02463821 	addu	a3,s2,a2
bfc0710c:	8cf20000 	lw	s2,0(a3)
bfc07110:	24020000 	li	v0,0
bfc07114:	02421826 	xor	v1,s2,v0
bfc07118:	0003182b 	sltu	v1,zero,v1
bfc0711c:	1460ff6e 	bnez	v1,bfc06ed8 <old_main+0x530>
bfc07120:	00000000 	nop
bfc07124:	00004021 	move	t0,zero
bfc07128:	8f890564 	lw	t1,1380(gp)
bfc0712c:	0109502a 	slt	t2,t0,t1
bfc07130:	11400026 	beqz	t2,bfc071cc <old_main+0x824>
bfc07134:	00000000 	nop
bfc07138:	00009821 	move	s3,zero
bfc0713c:	3c08bfc0 	lui	t0,0xbfc0
bfc07140:	2508042c 	addiu	t0,t0,1068
bfc07144:	278404b4 	addiu	a0,gp,1204
bfc07148:	27ab05e8 	addiu	t3,sp,1512
bfc0714c:	240c0004 	li	t4,4
bfc07150:	026c0018 	mult	s3,t4
bfc07154:	00006812 	mflo	t5
bfc07158:	016d7021 	addu	t6,t3,t5
bfc0715c:	8dc60000 	lw	a2,0(t6)
bfc07160:	02602821 	move	a1,s3
bfc07164:	03a0f021 	move	s8,sp
bfc07168:	03a0003e 	fst	sp
bfc0716c:	03e04009 	jalr	t0,ra
bfc07170:	00000000 	nop
bfc07174:	240f0124 	li	t7,292
bfc07178:	020f7021 	addu	t6,s0,t7
bfc0717c:	24180004 	li	t8,4
bfc07180:	02780018 	mult	s3,t8
bfc07184:	0000c812 	mflo	t9
bfc07188:	01d92021 	addu	a0,t6,t9
bfc0718c:	27a504e8 	addiu	a1,sp,1256
bfc07190:	24060004 	li	a2,4
bfc07194:	02660018 	mult	s3,a2
bfc07198:	00003812 	mflo	a3
bfc0719c:	00a71021 	addu	v0,a1,a3
bfc071a0:	8c430000 	lw	v1,0(v0)
bfc071a4:	ac830000 	sw	v1,0(a0)
bfc071a8:	24080001 	li	t0,1
bfc071ac:	02689821 	addu	s3,s3,t0
bfc071b0:	8f890564 	lw	t1,1380(gp)
bfc071b4:	0269502a 	slt	t2,s3,t1
bfc071b8:	394a0001 	xori	t2,t2,0x1
bfc071bc:	1140ffdf 	beqz	t2,bfc0713c <old_main+0x794>
bfc071c0:	00000000 	nop
bfc071c4:	0bf01c74 	j	bfc071d0 <old_main+0x828>
bfc071c8:	00000000 	nop
bfc071cc:	00009821 	move	s3,zero
bfc071d0:	00009821 	move	s3,zero
bfc071d4:	24010000 	li	at,0
bfc071d8:	44812800 	mtc1	at,$f5
bfc071dc:	44802000 	mtc1	zero,$f4
bfc071e0:	00009821 	move	s3,zero
bfc071e4:	240b000a 	li	t3,10
bfc071e8:	02001021 	move	v0,s0
bfc071ec:	4bf01c7c 	cqip	bfc071f0 <old_main+0x848>
bfc071f0:	53f01c7c 	pslice_entry	bfc071f0 <old_main+0x848>
bfc071f4:	57f01c7c 	pslice_exit	bfc071f0 <old_main+0x848>
bfc071f8:	8fbf0004 	lw	ra,4(sp)
bfc071fc:	8fb00008 	lw	s0,8(sp)
bfc07200:	8fb1000c 	lw	s1,12(sp)
bfc07204:	8fb20010 	lw	s2,16(sp)
bfc07208:	8fb30014 	lw	s3,20(sp)
bfc0720c:	8fbd0000 	lw	sp,0(sp)
bfc07210:	03e00008 	jr	ra
bfc07214:	00000000 	nop

bfc07218 <my_free>:
bfc07218:	b3f01c8b 	spawn	bfc0722c <my_free+0x14>
bfc0721c:	27bdffc0 	addiu	sp,sp,-64
bfc07220:	0000003f 	ust
bfc07224:	afbe0000 	sw	s8,0(sp)
bfc07228:	4bf01c8b 	cqip	bfc0722c <my_free+0x14>
bfc0722c:	53f01c8b 	pslice_entry	bfc0722c <my_free+0x14>
bfc07230:	27bdffc0 	addiu	sp,sp,-64
bfc07234:	57f01c8b 	pslice_exit	bfc0722c <my_free+0x14>
bfc07238:	00005821 	move	t3,zero
bfc0723c:	008b6021 	addu	t4,a0,t3
bfc07240:	85890000 	lh	t1,0(t4)
bfc07244:	240d0001 	li	t5,1
bfc07248:	012d7026 	xor	t6,t1,t5
bfc0724c:	2dce0001 	sltiu	t6,t6,1
bfc07250:	11c00008 	beqz	t6,bfc07274 <my_free+0x5c>
bfc07254:	00000000 	nop
bfc07258:	240f0080 	li	t7,128
bfc0725c:	008fc021 	addu	t8,a0,t7
bfc07260:	8f990484 	lw	t9,1156(gp)
bfc07264:	af190000 	sw	t9,0(t8)
bfc07268:	af840484 	sw	a0,1156(gp)
bfc0726c:	0bf01ca2 	j	bfc07288 <my_free+0x70>
bfc07270:	00000000 	nop
bfc07274:	24050050 	li	a1,80
bfc07278:	00852821 	addu	a1,a0,a1
bfc0727c:	8f8a0480 	lw	t2,1152(gp)
bfc07280:	acaa0000 	sw	t2,0(a1)
bfc07284:	af840480 	sw	a0,1152(gp)
bfc07288:	8fbd0000 	lw	sp,0(sp)
bfc0728c:	03e00008 	jr	ra
bfc07290:	00000000 	nop

bfc07294 <ubody_alloc>:
bfc07294:	b3f01cac 	spawn	bfc072b0 <ubody_alloc+0x1c>
bfc07298:	27bdffb0 	addiu	sp,sp,-80
bfc0729c:	0000003f 	ust
bfc072a0:	afbf0004 	sw	ra,4(sp)
bfc072a4:	afb00008 	sw	s0,8(sp)
bfc072a8:	afbe0000 	sw	s8,0(sp)
bfc072ac:	4bf01cac 	cqip	bfc072b0 <ubody_alloc+0x1c>
bfc072b0:	53f01cac 	pslice_entry	bfc072b0 <ubody_alloc+0x1c>
bfc072b4:	27bdffb0 	addiu	sp,sp,-80
bfc072b8:	57f01cac 	pslice_exit	bfc072b0 <ubody_alloc+0x1c>
bfc072bc:	00808021 	move	s0,a0
bfc072c0:	3c08bfc0 	lui	t0,0xbfc0
bfc072c4:	25080310 	addiu	t0,t0,784
bfc072c8:	24040088 	li	a0,136
bfc072cc:	03a0f021 	move	s8,sp
bfc072d0:	03a0003e 	fst	sp
bfc072d4:	03e04009 	jalr	t0,ra
bfc072d8:	00000000 	nop
bfc072dc:	00003021 	move	a2,zero
bfc072e0:	00463821 	addu	a3,v0,a2
bfc072e4:	24030001 	li	v1,1
bfc072e8:	a4e30000 	sh	v1,0(a3)
bfc072ec:	24030028 	li	v1,40
bfc072f0:	00434021 	addu	t0,v0,v1
bfc072f4:	ad100000 	sw	s0,0(t0)
bfc072f8:	24090084 	li	t1,132
bfc072fc:	00495021 	addu	t2,v0,t1
bfc07300:	240b0000 	li	t3,0
bfc07304:	ad4b0000 	sw	t3,0(t2)
bfc07308:	240c002c 	li	t4,44
bfc0730c:	004c6821 	addu	t5,v0,t4
bfc07310:	adb00000 	sw	s0,0(t5)
bfc07314:	8fbf0004 	lw	ra,4(sp)
bfc07318:	8fb00008 	lw	s0,8(sp)
bfc0731c:	8fbd0000 	lw	sp,0(sp)
bfc07320:	03e00008 	jr	ra
bfc07324:	00000000 	nop

bfc07328 <freetree>:
bfc07328:	b3f01cd2 	spawn	bfc07348 <freetree+0x20>
bfc0732c:	27bdff88 	addiu	sp,sp,-120
bfc07330:	0000003f 	ust
bfc07334:	afbf0004 	sw	ra,4(sp)
bfc07338:	afb00008 	sw	s0,8(sp)
bfc0733c:	afb1000c 	sw	s1,12(sp)
bfc07340:	afbe0000 	sw	s8,0(sp)
bfc07344:	4bf01cd2 	cqip	bfc07348 <freetree+0x20>
bfc07348:	53f01cd2 	pslice_entry	bfc07348 <freetree+0x20>
bfc0734c:	27bdff88 	addiu	sp,sp,-120
bfc07350:	57f01cd2 	pslice_exit	bfc07348 <freetree+0x20>
bfc07354:	00808021 	move	s0,a0
bfc07358:	24190000 	li	t9,0
bfc0735c:	02197026 	xor	t6,s0,t9
bfc07360:	2dce0001 	sltiu	t6,t6,1
bfc07364:	11c00003 	beqz	t6,bfc07374 <freetree+0x4c>
bfc07368:	00000000 	nop
bfc0736c:	0bf01ce3 	j	bfc0738c <freetree+0x64>
bfc07370:	00000000 	nop
bfc07374:	00002021 	move	a0,zero
bfc07378:	02042821 	addu	a1,s0,a0
bfc0737c:	84af0000 	lh	t7,0(a1)
bfc07380:	24060001 	li	a2,1
bfc07384:	01e67026 	xor	t6,t7,a2
bfc07388:	2dce0001 	sltiu	t6,t6,1
bfc0738c:	11c00007 	beqz	t6,bfc073ac <freetree+0x84>
bfc07390:	00000000 	nop
bfc07394:	8fbf0004 	lw	ra,4(sp)
bfc07398:	8fb00008 	lw	s0,8(sp)
bfc0739c:	8fb1000c 	lw	s1,12(sp)
bfc073a0:	8fbd0000 	lw	sp,0(sp)
bfc073a4:	03e00008 	jr	ra
bfc073a8:	00000000 	nop
bfc073ac:	24110007 	li	s1,7
bfc073b0:	24070030 	li	a3,48
bfc073b4:	0207c021 	addu	t8,s0,a3
bfc073b8:	24020004 	li	v0,4
bfc073bc:	02220018 	mult	s1,v0
bfc073c0:	00001812 	mflo	v1
bfc073c4:	03034021 	addu	t0,t8,v1
bfc073c8:	8d040000 	lw	a0,0(t0)
bfc073cc:	24090000 	li	t1,0
bfc073d0:	00895026 	xor	t2,a0,t1
bfc073d4:	000a502b 	sltu	t2,zero,t2
bfc073d8:	11400007 	beqz	t2,bfc073f8 <freetree+0xd0>
bfc073dc:	00000000 	nop
bfc073e0:	3c08bfc0 	lui	t0,0xbfc0
bfc073e4:	25087328 	addiu	t0,t0,29480
bfc073e8:	03a0f021 	move	s8,sp
bfc073ec:	03a0003e 	fst	sp
bfc073f0:	03e04009 	jalr	t0,ra
bfc073f4:	00000000 	nop
bfc073f8:	240bffff 	li	t3,-1
bfc073fc:	022b8821 	addu	s1,s1,t3
bfc07400:	00006021 	move	t4,zero
bfc07404:	022c682a 	slt	t5,s1,t4
bfc07408:	11a0ffe9 	beqz	t5,bfc073b0 <freetree+0x88>
bfc0740c:	00000000 	nop
bfc07410:	3c08bfc0 	lui	t0,0xbfc0
bfc07414:	25087218 	addiu	t0,t0,29208
bfc07418:	02002021 	move	a0,s0
bfc0741c:	03a0f021 	move	s8,sp
bfc07420:	03a0003e 	fst	sp
bfc07424:	03e04009 	jalr	t0,ra
bfc07428:	00000000 	nop
bfc0742c:	8fbf0004 	lw	ra,4(sp)
bfc07430:	8fb00008 	lw	s0,8(sp)
bfc07434:	8fb1000c 	lw	s1,12(sp)
bfc07438:	8fbd0000 	lw	sp,0(sp)
bfc0743c:	03e00008 	jr	ra
bfc07440:	00000000 	nop

bfc07444 <freetree1>:
bfc07444:	b3f01d17 	spawn	bfc0745c <freetree1+0x18>
bfc07448:	27bdffe8 	addiu	sp,sp,-24
bfc0744c:	0000003f 	ust
bfc07450:	afbf0004 	sw	ra,4(sp)
bfc07454:	afbe0000 	sw	s8,0(sp)
bfc07458:	4bf01d17 	cqip	bfc0745c <freetree1+0x18>
bfc0745c:	53f01d17 	pslice_entry	bfc0745c <freetree1+0x18>
bfc07460:	27bdffe8 	addiu	sp,sp,-24
bfc07464:	57f01d17 	pslice_exit	bfc0745c <freetree1+0x18>
bfc07468:	3c08bfc0 	lui	t0,0xbfc0
bfc0746c:	25087328 	addiu	t0,t0,29480
bfc07470:	03a0f021 	move	s8,sp
bfc07474:	03a0003e 	fst	sp
bfc07478:	03e04009 	jalr	t0,ra
bfc0747c:	00000000 	nop
bfc07480:	8fbf0004 	lw	ra,4(sp)
bfc07484:	8fbd0000 	lw	sp,0(sp)
bfc07488:	03e00008 	jr	ra
bfc0748c:	00000000 	nop

bfc07490 <entry>:
bfc07490:	b3f01d2a 	spawn	bfc074a8 <entry+0x18>
bfc07494:	27bdffd0 	addiu	sp,sp,-48
bfc07498:	0000003f 	ust
bfc0749c:	afbf0004 	sw	ra,4(sp)
bfc074a0:	afbe0000 	sw	s8,0(sp)
bfc074a4:	4bf01d2a 	cqip	bfc074a8 <entry+0x18>
bfc074a8:	53f01d2a 	pslice_entry	bfc074a8 <entry+0x18>
bfc074ac:	27bdffd0 	addiu	sp,sp,-48
bfc074b0:	57f01d2a 	pslice_exit	bfc074a8 <entry+0x18>
bfc074b4:	3c08bfc0 	lui	t0,0xbfc0
bfc074b8:	250833c0 	addiu	t0,t0,13248
bfc074bc:	03a0f021 	move	s8,sp
bfc074c0:	03a0003e 	fst	sp
bfc074c4:	03e04009 	jalr	t0,ra
bfc074c8:	00000000 	nop
bfc074cc:	3c08bfc0 	lui	t0,0xbfc0
bfc074d0:	2508042c 	addiu	t0,t0,1068
bfc074d4:	27840488 	addiu	a0,gp,1160
bfc074d8:	8f85055c 	lw	a1,1372(gp)
bfc074dc:	8f860564 	lw	a2,1380(gp)
bfc074e0:	03a0f021 	move	s8,sp
bfc074e4:	03a0003e 	fst	sp
bfc074e8:	03e04009 	jalr	t0,ra
bfc074ec:	00000000 	nop
bfc074f0:	3c08bfc0 	lui	t0,0xbfc0
bfc074f4:	250869a8 	addiu	t0,t0,27048
bfc074f8:	03a0f021 	move	s8,sp
bfc074fc:	03a0003e 	fst	sp
bfc07500:	03e04009 	jalr	t0,ra
bfc07504:	00000000 	nop
bfc07508:	00001021 	move	v0,zero
bfc0750c:	8fbf0004 	lw	ra,4(sp)
bfc07510:	8fbd0000 	lw	sp,0(sp)
bfc07514:	03e00008 	jr	ra
bfc07518:	00000000 	nop

bfc0751c <Srand>:
bfc0751c:	b3f01d4d 	spawn	bfc07534 <Srand+0x18>
bfc07520:	27bdffe0 	addiu	sp,sp,-32
bfc07524:	0000003f 	ust
bfc07528:	afbf0004 	sw	ra,4(sp)
bfc0752c:	afbe0000 	sw	s8,0(sp)
bfc07530:	4bf01d4d 	cqip	bfc07534 <Srand+0x18>
bfc07534:	53f01d4d 	pslice_entry	bfc07534 <Srand+0x18>
bfc07538:	27bdffe0 	addiu	sp,sp,-32
bfc0753c:	57f01d4d 	pslice_exit	bfc07534 <Srand+0x18>
bfc07540:	3c08bfc0 	lui	t0,0xbfc0
bfc07544:	25080500 	addiu	t0,t0,1280
bfc07548:	03a0f021 	move	s8,sp
bfc0754c:	03a0003e 	fst	sp
bfc07550:	03e04009 	jalr	t0,ra
bfc07554:	00000000 	nop
bfc07558:	240e007b 	li	t6,123
bfc0755c:	15c00002 	bnez	t6,bfc07568 <Srand+0x4c>
bfc07560:	004e001a 	div	zero,v0,t6
bfc07564:	0007000d 	break	0x7
bfc07568:	2401ffff 	li	at,-1
bfc0756c:	15c10004 	bne	t6,at,bfc07580 <Srand+0x64>
bfc07570:	3c018000 	lui	at,0x8000
bfc07574:	14410002 	bne	v0,at,bfc07580 <Srand+0x64>
bfc07578:	00000000 	nop
bfc0757c:	0006000d 	break	0x6
bfc07580:	00001012 	mflo	v0
bfc07584:	8fbf0004 	lw	ra,4(sp)
bfc07588:	8fbd0000 	lw	sp,0(sp)
bfc0758c:	03e00008 	jr	ra
bfc07590:	00000000 	nop

bfc07594 <old_subindex>:
bfc07594:	b3f01d6a 	spawn	bfc075a8 <old_subindex+0x14>
bfc07598:	27bdff90 	addiu	sp,sp,-112
bfc0759c:	0000003f 	ust
bfc075a0:	afbe0000 	sw	s8,0(sp)
bfc075a4:	4bf01d6a 	cqip	bfc075a8 <old_subindex+0x14>
bfc075a8:	53f01d6a 	pslice_entry	bfc075a8 <old_subindex+0x14>
bfc075ac:	27bdff90 	addiu	sp,sp,-112
bfc075b0:	57f01d6a 	pslice_exit	bfc075a8 <old_subindex+0x14>
bfc075b4:	8fb8005c 	lw	t8,92(sp)
bfc075b8:	afa40060 	sw	a0,96(sp)
bfc075bc:	afa50064 	sw	a1,100(sp)
bfc075c0:	afa60068 	sw	a2,104(sp)
bfc075c4:	afa7006c 	sw	a3,108(sp)
bfc075c8:	00001021 	move	v0,zero
bfc075cc:	00002821 	move	a1,zero
bfc075d0:	27a60060 	addiu	a2,sp,96
bfc075d4:	24070004 	li	a3,4
bfc075d8:	00a70018 	mult	a1,a3
bfc075dc:	00001812 	mflo	v1
bfc075e0:	00c31821 	addu	v1,a2,v1
bfc075e4:	8c790000 	lw	t9,0(v1)
bfc075e8:	03387824 	and	t7,t9,t8
bfc075ec:	00004021 	move	t0,zero
bfc075f0:	01e84826 	xor	t1,t7,t0
bfc075f4:	0009482b 	sltu	t1,zero,t1
bfc075f8:	11200006 	beqz	t1,bfc07614 <old_subindex+0x80>
bfc075fc:	00000000 	nop
bfc07600:	240a0008 	li	t2,8
bfc07604:	240b0001 	li	t3,1
bfc07608:	00ab2021 	addu	a0,a1,t3
bfc0760c:	008a6007 	srav	t4,t2,a0
bfc07610:	004c1021 	addu	v0,v0,t4
bfc07614:	240d0001 	li	t5,1
bfc07618:	00ad2821 	addu	a1,a1,t5
bfc0761c:	240e0003 	li	t6,3
bfc07620:	00ae782a 	slt	t7,a1,t6
bfc07624:	39ef0001 	xori	t7,t7,0x1
bfc07628:	11e0ffe9 	beqz	t7,bfc075d0 <old_subindex+0x3c>
bfc0762c:	00000000 	nop
bfc07630:	8fbd0000 	lw	sp,0(sp)
bfc07634:	03e00008 	jr	ra
bfc07638:	00000000 	nop

bfc0763c <body_alloc>:
bfc0763c:	b3f01da2 	spawn	bfc07688 <body_alloc+0x4c>
bfc07640:	27bdfed0 	addiu	sp,sp,-304
bfc07644:	0000003f 	ust
bfc07648:	afbf0004 	sw	ra,4(sp)
bfc0764c:	afb00008 	sw	s0,8(sp)
bfc07650:	e7b40010 	swc1	$f20,16(sp)
bfc07654:	e7b50014 	swc1	$f21,20(sp)
bfc07658:	e7b60018 	swc1	$f22,24(sp)
bfc0765c:	e7b7001c 	swc1	$f23,28(sp)
bfc07660:	e7b80020 	swc1	$f24,32(sp)
bfc07664:	e7b90024 	swc1	$f25,36(sp)
bfc07668:	e7ba0028 	swc1	$f26,40(sp)
bfc0766c:	e7bb002c 	swc1	$f27,44(sp)
bfc07670:	e7bc0030 	swc1	$f28,48(sp)
bfc07674:	e7bd0034 	swc1	$f29,52(sp)
bfc07678:	e7be0038 	swc1	$f30,56(sp)
bfc0767c:	e7bf003c 	swc1	$f31,60(sp)
bfc07680:	afbe0000 	sw	s8,0(sp)
bfc07684:	4bf01da2 	cqip	bfc07688 <body_alloc+0x4c>
bfc07688:	53f01da2 	pslice_entry	bfc07688 <body_alloc+0x4c>
bfc0768c:	27bdfed0 	addiu	sp,sp,-304
bfc07690:	57f01da2 	pslice_exit	bfc07688 <body_alloc+0x4c>
bfc07694:	b3f01e01 	spawn	bfc07804 <body_alloc+0x1c8>
bfc07698:	c7b600f8 	lwc1	$f22,248(sp)
bfc0769c:	c7b700fc 	lwc1	$f23,252(sp)
bfc076a0:	c7b80100 	lwc1	$f24,256(sp)
bfc076a4:	c7b90104 	lwc1	$f25,260(sp)
bfc076a8:	c7ba0108 	lwc1	$f26,264(sp)
bfc076ac:	c7bb010c 	lwc1	$f27,268(sp)
bfc076b0:	c7bc0110 	lwc1	$f28,272(sp)
bfc076b4:	c7bd0114 	lwc1	$f29,276(sp)
bfc076b8:	c7be0118 	lwc1	$f30,280(sp)
bfc076bc:	c7bf011c 	lwc1	$f31,284(sp)
bfc076c0:	00808021 	move	s0,a0
bfc076c4:	44867000 	mtc1	a2,$f14
bfc076c8:	44877800 	mtc1	a3,$f15
bfc076cc:	46207506 	mov.d	$f20,$f14
bfc076d0:	24050000 	li	a1,0
bfc076d4:	8f860484 	lw	a2,1156(gp)
bfc076d8:	00c53826 	xor	a3,a2,a1
bfc076dc:	0007382b 	sltu	a3,zero,a3
bfc076e0:	10e00009 	beqz	a3,bfc07708 <body_alloc+0xcc>
bfc076e4:	00000000 	nop
bfc076e8:	8f820484 	lw	v0,1156(gp)
bfc076ec:	24030080 	li	v1,128
bfc076f0:	8f880484 	lw	t0,1156(gp)
bfc076f4:	01034021 	addu	t0,t0,v1
bfc076f8:	8d090000 	lw	t1,0(t0)
bfc076fc:	af890484 	sw	t1,1156(gp)
bfc07700:	0bf01dc9 	j	bfc07724 <body_alloc+0xe8>
bfc07704:	00000000 	nop
bfc07708:	3c08bfc0 	lui	t0,0xbfc0
bfc0770c:	25080310 	addiu	t0,t0,784
bfc07710:	24040088 	li	a0,136
bfc07714:	03a0f021 	move	s8,sp
bfc07718:	03a0003e 	fst	sp
bfc0771c:	03e04009 	jalr	t0,ra
bfc07720:	00000000 	nop
bfc07724:	00005021 	move	t2,zero
bfc07728:	004a5821 	addu	t3,v0,t2
bfc0772c:	240c0001 	li	t4,1
bfc07730:	a56c0000 	sh	t4,0(t3)
bfc07734:	240d0028 	li	t5,40
bfc07738:	004d7021 	addu	t6,v0,t5
bfc0773c:	add00000 	sw	s0,0(t6)
bfc07740:	240f0010 	li	t7,16
bfc07744:	004f2021 	addu	a0,v0,t7
bfc07748:	e4940000 	swc1	$f20,0(a0)
bfc0774c:	e4950004 	swc1	$f21,4(a0)
bfc07750:	24180018 	li	t8,24
bfc07754:	0058c821 	addu	t9,v0,t8
bfc07758:	e73e0000 	swc1	$f30,0(t9)
bfc0775c:	e73f0004 	swc1	$f31,4(t9)
bfc07760:	24040020 	li	a0,32
bfc07764:	00442821 	addu	a1,v0,a0
bfc07768:	e4bc0000 	swc1	$f28,0(a1)
bfc0776c:	e4bd0004 	swc1	$f29,4(a1)
bfc07770:	24060030 	li	a2,48
bfc07774:	0046c821 	addu	t9,v0,a2
bfc07778:	e73a0000 	swc1	$f26,0(t9)
bfc0777c:	e73b0004 	swc1	$f27,4(t9)
bfc07780:	24070038 	li	a3,56
bfc07784:	00471821 	addu	v1,v0,a3
bfc07788:	e4780000 	swc1	$f24,0(v1)
bfc0778c:	e4790004 	swc1	$f25,4(v1)
bfc07790:	24030040 	li	v1,64
bfc07794:	00434021 	addu	t0,v0,v1
bfc07798:	e5160000 	swc1	$f22,0(t0)
bfc0779c:	e5170004 	swc1	$f23,4(t0)
bfc077a0:	24090048 	li	t1,72
bfc077a4:	0049c021 	addu	t8,v0,t1
bfc077a8:	c7a600f0 	lwc1	$f6,240(sp)
bfc077ac:	c7a700f4 	lwc1	$f7,244(sp)
bfc077b0:	e7060000 	swc1	$f6,0(t8)
bfc077b4:	e7070004 	swc1	$f7,4(t8)
bfc077b8:	240a0050 	li	t2,80
bfc077bc:	004a5821 	addu	t3,v0,t2
bfc077c0:	c7a400e8 	lwc1	$f4,232(sp)
bfc077c4:	c7a500ec 	lwc1	$f5,236(sp)
bfc077c8:	e5640000 	swc1	$f4,0(t3)
bfc077cc:	e5650004 	swc1	$f5,4(t3)
bfc077d0:	240c0058 	li	t4,88
bfc077d4:	004c6821 	addu	t5,v0,t4
bfc077d8:	c7a200e0 	lwc1	$f2,224(sp)
bfc077dc:	c7a300e4 	lwc1	$f3,228(sp)
bfc077e0:	e5a20000 	swc1	$f2,0(t5)
bfc077e4:	e5a30004 	swc1	$f3,4(t5)
bfc077e8:	240e0008 	li	t6,8
bfc077ec:	004e7821 	addu	t7,v0,t6
bfc077f0:	c7a000d8 	lwc1	$f0,216(sp)
bfc077f4:	c7a100dc 	lwc1	$f1,220(sp)
bfc077f8:	e5e00000 	swc1	$f0,0(t7)
bfc077fc:	e5e10004 	swc1	$f1,4(t7)
bfc07800:	4bf01e01 	cqip	bfc07804 <body_alloc+0x1c8>
bfc07804:	53f01e01 	pslice_entry	bfc07804 <body_alloc+0x1c8>
bfc07808:	57f01e01 	pslice_exit	bfc07804 <body_alloc+0x1c8>
bfc0780c:	8fbf0004 	lw	ra,4(sp)
bfc07810:	8fb00008 	lw	s0,8(sp)
bfc07814:	c7b40010 	lwc1	$f20,16(sp)
bfc07818:	c7b50014 	lwc1	$f21,20(sp)
bfc0781c:	c7b60018 	lwc1	$f22,24(sp)
bfc07820:	c7b7001c 	lwc1	$f23,28(sp)
bfc07824:	c7b80020 	lwc1	$f24,32(sp)
bfc07828:	c7b90024 	lwc1	$f25,36(sp)
bfc0782c:	c7ba0028 	lwc1	$f26,40(sp)
bfc07830:	c7bb002c 	lwc1	$f27,44(sp)
bfc07834:	c7bc0030 	lwc1	$f28,48(sp)
bfc07838:	c7bd0034 	lwc1	$f29,52(sp)
bfc0783c:	c7be0038 	lwc1	$f30,56(sp)
bfc07840:	c7bf003c 	lwc1	$f31,60(sp)
bfc07844:	8fbd0000 	lw	sp,0(sp)
bfc07848:	03e00008 	jr	ra
bfc0784c:	00000000 	nop

bfc07850 <cell_alloc>:
bfc07850:	b3f01e1b 	spawn	bfc0786c <cell_alloc+0x1c>
bfc07854:	27bdff80 	addiu	sp,sp,-128
bfc07858:	0000003f 	ust
bfc0785c:	afbf0004 	sw	ra,4(sp)
bfc07860:	afb00008 	sw	s0,8(sp)
bfc07864:	afbe0000 	sw	s8,0(sp)
bfc07868:	4bf01e1b 	cqip	bfc0786c <cell_alloc+0x1c>
bfc0786c:	53f01e1b 	pslice_entry	bfc0786c <cell_alloc+0x1c>
bfc07870:	27bdff80 	addiu	sp,sp,-128
bfc07874:	57f01e1b 	pslice_exit	bfc0786c <cell_alloc+0x1c>
bfc07878:	00808021 	move	s0,a0
bfc0787c:	240d0000 	li	t5,0
bfc07880:	8f8e0480 	lw	t6,1152(gp)
bfc07884:	01cd7826 	xor	t7,t6,t5
bfc07888:	000f782b 	sltu	t7,zero,t7
bfc0788c:	11e00009 	beqz	t7,bfc078b4 <cell_alloc+0x64>
bfc07890:	00000000 	nop
bfc07894:	8f820480 	lw	v0,1152(gp)
bfc07898:	8f8b0480 	lw	t3,1152(gp)
bfc0789c:	24180050 	li	t8,80
bfc078a0:	0178c821 	addu	t9,t3,t8
bfc078a4:	8f2a0000 	lw	t2,0(t9)
bfc078a8:	af8a0480 	sw	t2,1152(gp)
bfc078ac:	0bf01e34 	j	bfc078d0 <cell_alloc+0x80>
bfc078b0:	00000000 	nop
bfc078b4:	3c08bfc0 	lui	t0,0xbfc0
bfc078b8:	25080310 	addiu	t0,t0,784
bfc078bc:	24040058 	li	a0,88
bfc078c0:	03a0f021 	move	s8,sp
bfc078c4:	03a0003e 	fst	sp
bfc078c8:	03e04009 	jalr	t0,ra
bfc078cc:	00000000 	nop
bfc078d0:	00002021 	move	a0,zero
bfc078d4:	00442821 	addu	a1,v0,a0
bfc078d8:	24060002 	li	a2,2
bfc078dc:	a4a60000 	sh	a2,0(a1)
bfc078e0:	24070028 	li	a3,40
bfc078e4:	00471821 	addu	v1,v0,a3
bfc078e8:	ac700000 	sw	s0,0(v1)
bfc078ec:	00001821 	move	v1,zero
bfc078f0:	24080030 	li	t0,48
bfc078f4:	00486021 	addu	t4,v0,t0
bfc078f8:	24090004 	li	t1,4
bfc078fc:	00690018 	mult	v1,t1
bfc07900:	00005012 	mflo	t2
bfc07904:	018a5821 	addu	t3,t4,t2
bfc07908:	240c0000 	li	t4,0
bfc0790c:	ad6c0000 	sw	t4,0(t3)
bfc07910:	240d0001 	li	t5,1
bfc07914:	006d1821 	addu	v1,v1,t5
bfc07918:	240e0008 	li	t6,8
bfc0791c:	006e782a 	slt	t7,v1,t6
bfc07920:	39ef0001 	xori	t7,t7,0x1
bfc07924:	11e0fff2 	beqz	t7,bfc078f0 <cell_alloc+0xa0>
bfc07928:	00000000 	nop
bfc0792c:	8fbf0004 	lw	ra,4(sp)
bfc07930:	8fb00008 	lw	s0,8(sp)
bfc07934:	8fbd0000 	lw	sp,0(sp)
bfc07938:	03e00008 	jr	ra
bfc0793c:	00000000 	nop

bfc07940 <grav>:
bfc07940:	b3f01e5e 	spawn	bfc07978 <grav+0x38>
bfc07944:	27bdff80 	addiu	sp,sp,-128
bfc07948:	0000003f 	ust
bfc0794c:	afbf0004 	sw	ra,4(sp)
bfc07950:	afb00008 	sw	s0,8(sp)
bfc07954:	afb1000c 	sw	s1,12(sp)
bfc07958:	afb20010 	sw	s2,16(sp)
bfc0795c:	afb30014 	sw	s3,20(sp)
bfc07960:	e7b40018 	swc1	$f20,24(sp)
bfc07964:	e7b5001c 	swc1	$f21,28(sp)
bfc07968:	e7b60020 	swc1	$f22,32(sp)
bfc0796c:	e7b70024 	swc1	$f23,36(sp)
bfc07970:	afbe0000 	sw	s8,0(sp)
bfc07974:	4bf01e5e 	cqip	bfc07978 <grav+0x38>
bfc07978:	53f01e5e 	pslice_entry	bfc07978 <grav+0x38>
bfc0797c:	27bdff80 	addiu	sp,sp,-128
bfc07980:	57f01e5e 	pslice_exit	bfc07978 <grav+0x38>
bfc07984:	b3f01e8a 	spawn	bfc07a28 <grav+0xe8>
bfc07988:	c7b60060 	lwc1	$f22,96(sp)
bfc0798c:	c7b70064 	lwc1	$f23,100(sp)
bfc07990:	8fb2006c 	lw	s2,108(sp)
bfc07994:	46206506 	mov.d	$f20,$f12
bfc07998:	00c08821 	move	s1,a2
bfc0799c:	00e08021 	move	s0,a3
bfc079a0:	00009821 	move	s3,zero
bfc079a4:	24180000 	li	t8,0
bfc079a8:	0218c826 	xor	t9,s0,t8
bfc079ac:	0019c82b 	sltu	t9,zero,t9
bfc079b0:	13200001 	beqz	t9,bfc079b8 <grav+0x78>
bfc079b4:	00000000 	nop
bfc079b8:	24040000 	li	a0,0
bfc079bc:	02042826 	xor	a1,s0,a0
bfc079c0:	0005282b 	sltu	a1,zero,a1
bfc079c4:	10a00017 	beqz	a1,bfc07a24 <grav+0xe4>
bfc079c8:	00000000 	nop
bfc079cc:	3c08bfc0 	lui	t0,0xbfc0
bfc079d0:	25085228 	addiu	t0,t0,21032
bfc079d4:	4620a306 	mov.d	$f12,$f20
bfc079d8:	02203021 	move	a2,s1
bfc079dc:	02003821 	move	a3,s0
bfc079e0:	03a0f021 	move	s8,sp
bfc079e4:	03a0003e 	fst	sp
bfc079e8:	afb2ffec 	sw	s2,-20(sp)
bfc079ec:	e7b6ffe0 	swc1	$f22,-32(sp)
bfc079f0:	e7b7ffe4 	swc1	$f23,-28(sp)
bfc079f4:	03e04009 	jalr	t0,ra
bfc079f8:	00000000 	nop
bfc079fc:	24060084 	li	a2,132
bfc07a00:	02063821 	addu	a3,s0,a2
bfc07a04:	8cf00000 	lw	s0,0(a3)
bfc07a08:	24020001 	li	v0,1
bfc07a0c:	02629821 	addu	s3,s3,v0
bfc07a10:	24030000 	li	v1,0
bfc07a14:	02034026 	xor	t0,s0,v1
bfc07a18:	0008402b 	sltu	t0,zero,t0
bfc07a1c:	1500ffeb 	bnez	t0,bfc079cc <grav+0x8c>
bfc07a20:	00000000 	nop
bfc07a24:	4bf01e8a 	cqip	bfc07a28 <grav+0xe8>
bfc07a28:	53f01e8a 	pslice_entry	bfc07a28 <grav+0xe8>
bfc07a2c:	57f01e8a 	pslice_exit	bfc07a28 <grav+0xe8>
bfc07a30:	8fbf0004 	lw	ra,4(sp)
bfc07a34:	8fb00008 	lw	s0,8(sp)
bfc07a38:	8fb1000c 	lw	s1,12(sp)
bfc07a3c:	8fb20010 	lw	s2,16(sp)
bfc07a40:	8fb30014 	lw	s3,20(sp)
bfc07a44:	c7b40018 	lwc1	$f20,24(sp)
bfc07a48:	c7b5001c 	lwc1	$f21,28(sp)
bfc07a4c:	c7b60020 	lwc1	$f22,32(sp)
bfc07a50:	c7b70024 	lwc1	$f23,36(sp)
bfc07a54:	8fbd0000 	lw	sp,0(sp)
bfc07a58:	03e00008 	jr	ra
bfc07a5c:	00000000 	nop

bfc07a60 <hackgrav>:
bfc07a60:	b3f01ea0 	spawn	bfc07a80 <hackgrav+0x20>
bfc07a64:	27bdfeb0 	addiu	sp,sp,-336
bfc07a68:	0000003f 	ust
bfc07a6c:	afbf0004 	sw	ra,4(sp)
bfc07a70:	afb00008 	sw	s0,8(sp)
bfc07a74:	afb1000c 	sw	s1,12(sp)
bfc07a78:	afbe0000 	sw	s8,0(sp)
bfc07a7c:	4bf01ea0 	cqip	bfc07a80 <hackgrav+0x20>
bfc07a80:	53f01ea0 	pslice_entry	bfc07a80 <hackgrav+0x20>
bfc07a84:	27bdfeb0 	addiu	sp,sp,-336
bfc07a88:	57f01ea0 	pslice_exit	bfc07a80 <hackgrav+0x20>
bfc07a8c:	8fa5013c 	lw	a1,316(sp)
bfc07a90:	00808021 	move	s0,a0
bfc07a94:	44867000 	mtc1	a2,$f14
bfc07a98:	44877800 	mtc1	a3,$f15
bfc07a9c:	27ab00f8 	addiu	t3,sp,248
bfc07aa0:	ad700000 	sw	s0,0(t3)
bfc07aa4:	00006021 	move	t4,zero
bfc07aa8:	27ad0100 	addiu	t5,sp,256
bfc07aac:	240e0008 	li	t6,8
bfc07ab0:	018e0018 	mult	t4,t6
bfc07ab4:	00007812 	mflo	t7
bfc07ab8:	01afc021 	addu	t8,t5,t7
bfc07abc:	24190010 	li	t9,16
bfc07ac0:	02194821 	addu	t1,s0,t9
bfc07ac4:	24040008 	li	a0,8
bfc07ac8:	01840018 	mult	t4,a0
bfc07acc:	00003012 	mflo	a2
bfc07ad0:	01263021 	addu	a2,t1,a2
bfc07ad4:	c4c40000 	lwc1	$f4,0(a2)
bfc07ad8:	c4c50004 	lwc1	$f5,4(a2)
bfc07adc:	e7040000 	swc1	$f4,0(t8)
bfc07ae0:	e7050004 	swc1	$f5,4(t8)
bfc07ae4:	24070001 	li	a3,1
bfc07ae8:	01876021 	addu	t4,t4,a3
bfc07aec:	24020003 	li	v0,3
bfc07af0:	0182182a 	slt	v1,t4,v0
bfc07af4:	38630001 	xori	v1,v1,0x1
bfc07af8:	1060ffeb 	beqz	v1,bfc07aa8 <hackgrav+0x48>
bfc07afc:	00000000 	nop
bfc07b00:	27a80118 	addiu	t0,sp,280
bfc07b04:	24010000 	li	at,0
bfc07b08:	44812800 	mtc1	at,$f5
bfc07b0c:	44802000 	mtc1	zero,$f4
bfc07b10:	e5040000 	swc1	$f4,0(t0)
bfc07b14:	e5050004 	swc1	$f5,4(t0)
bfc07b18:	00004821 	move	t1,zero
bfc07b1c:	27aa0120 	addiu	t2,sp,288
bfc07b20:	240b0008 	li	t3,8
bfc07b24:	012b0018 	mult	t1,t3
bfc07b28:	00006012 	mflo	t4
bfc07b2c:	014c6821 	addu	t5,t2,t4
bfc07b30:	24010000 	li	at,0
bfc07b34:	44813800 	mtc1	at,$f7
bfc07b38:	44803000 	mtc1	zero,$f6
bfc07b3c:	e5a60000 	swc1	$f6,0(t5)
bfc07b40:	e5a70004 	swc1	$f7,4(t5)
bfc07b44:	240e0001 	li	t6,1
bfc07b48:	012e4821 	addu	t1,t1,t6
bfc07b4c:	240f0003 	li	t7,3
bfc07b50:	012fc02a 	slt	t8,t1,t7
bfc07b54:	3b180001 	xori	t8,t8,0x1
bfc07b58:	1300fff0 	beqz	t8,bfc07b1c <hackgrav+0xbc>
bfc07b5c:	00000000 	nop
bfc07b60:	462e7382 	mul.d	$f14,$f14,$f14
bfc07b64:	3c08bfc0 	lui	t0,0xbfc0
bfc07b68:	25083654 	addiu	t0,t0,13908
bfc07b6c:	3c013ff0 	lui	at,0x3ff0
bfc07b70:	44814800 	mtc1	at,$f9
bfc07b74:	44804000 	mtc1	zero,$f8
bfc07b78:	0000c021 	move	t8,zero
bfc07b7c:	27a400f8 	addiu	a0,sp,248
bfc07b80:	44067000 	mfc1	a2,$f14
bfc07b84:	44077800 	mfc1	a3,$f15
bfc07b88:	03a0f021 	move	s8,sp
bfc07b8c:	03a0003e 	fst	sp
bfc07b90:	e7a8ffe8 	swc1	$f8,-24(sp)
bfc07b94:	e7a9ffec 	swc1	$f9,-20(sp)
bfc07b98:	27b900f8 	addiu	t9,sp,248
bfc07b9c:	27b1ffa8 	addiu	s1,sp,-88
bfc07ba0:	8f220000 	lw	v0,0(t9)
bfc07ba4:	8f230004 	lw	v1,4(t9)
bfc07ba8:	8f290008 	lw	t1,8(t9)
bfc07bac:	ae220000 	sw	v0,0(s1)
bfc07bb0:	ae230004 	sw	v1,4(s1)
bfc07bb4:	ae290008 	sw	t1,8(s1)
bfc07bb8:	8f22000c 	lw	v0,12(t9)
bfc07bbc:	8f230010 	lw	v1,16(t9)
bfc07bc0:	8f290014 	lw	t1,20(t9)
bfc07bc4:	ae22000c 	sw	v0,12(s1)
bfc07bc8:	ae230010 	sw	v1,16(s1)
bfc07bcc:	ae290014 	sw	t1,20(s1)
bfc07bd0:	8f290018 	lw	t1,24(t9)
bfc07bd4:	8f2a001c 	lw	t2,28(t9)
bfc07bd8:	8f2b0020 	lw	t3,32(t9)
bfc07bdc:	ae290018 	sw	t1,24(s1)
bfc07be0:	ae2a001c 	sw	t2,28(s1)
bfc07be4:	ae2b0020 	sw	t3,32(s1)
bfc07be8:	8f2b0024 	lw	t3,36(t9)
bfc07bec:	8f2c0028 	lw	t4,40(t9)
bfc07bf0:	8f2d002c 	lw	t5,44(t9)
bfc07bf4:	ae2b0024 	sw	t3,36(s1)
bfc07bf8:	ae2c0028 	sw	t4,40(s1)
bfc07bfc:	ae2d002c 	sw	t5,44(s1)
bfc07c00:	8f2e0030 	lw	t6,48(t9)
bfc07c04:	8f2f0034 	lw	t7,52(t9)
bfc07c08:	8f220038 	lw	v0,56(t9)
bfc07c0c:	ae2e0030 	sw	t6,48(s1)
bfc07c10:	ae2f0034 	sw	t7,52(s1)
bfc07c14:	ae220038 	sw	v0,56(s1)
bfc07c18:	8f22003c 	lw	v0,60(t9)
bfc07c1c:	ae22003c 	sw	v0,60(s1)
bfc07c20:	afb8ffa4 	sw	t8,-92(sp)
bfc07c24:	03e04009 	jalr	t0,ra
bfc07c28:	00000000 	nop
bfc07c2c:	24050078 	li	a1,120
bfc07c30:	02053021 	addu	a2,s0,a1
bfc07c34:	27a70118 	addiu	a3,sp,280
bfc07c38:	c4ea0000 	lwc1	$f10,0(a3)
bfc07c3c:	c4eb0004 	lwc1	$f11,4(a3)
bfc07c40:	e4ca0000 	swc1	$f10,0(a2)
bfc07c44:	e4cb0004 	swc1	$f11,4(a2)
bfc07c48:	00001021 	move	v0,zero
bfc07c4c:	24030060 	li	v1,96
bfc07c50:	02035021 	addu	t2,s0,v1
bfc07c54:	24080008 	li	t0,8
bfc07c58:	00480018 	mult	v0,t0
bfc07c5c:	00004812 	mflo	t1
bfc07c60:	01495021 	addu	t2,t2,t1
bfc07c64:	27ab0120 	addiu	t3,sp,288
bfc07c68:	240c0008 	li	t4,8
bfc07c6c:	004c0018 	mult	v0,t4
bfc07c70:	00006812 	mflo	t5
bfc07c74:	016d7021 	addu	t6,t3,t5
bfc07c78:	c5d00000 	lwc1	$f16,0(t6)
bfc07c7c:	c5d10004 	lwc1	$f17,4(t6)
bfc07c80:	e5500000 	swc1	$f16,0(t2)
bfc07c84:	e5510004 	swc1	$f17,4(t2)
bfc07c88:	240f0001 	li	t7,1
bfc07c8c:	004f1021 	addu	v0,v0,t7
bfc07c90:	24180003 	li	t8,3
bfc07c94:	0058c82a 	slt	t9,v0,t8
bfc07c98:	3b390001 	xori	t9,t9,0x1
bfc07c9c:	1320ffeb 	beqz	t9,bfc07c4c <hackgrav+0x1ec>
bfc07ca0:	00000000 	nop
bfc07ca4:	8fbf0004 	lw	ra,4(sp)
bfc07ca8:	8fb00008 	lw	s0,8(sp)
bfc07cac:	8fb1000c 	lw	s1,12(sp)
bfc07cb0:	8fbd0000 	lw	sp,0(sp)
bfc07cb4:	03e00008 	jr	ra
bfc07cb8:	00000000 	nop

bfc07cbc <loadtree>:
bfc07cbc:	b3f01f3a 	spawn	bfc07ce8 <loadtree+0x2c>
bfc07cc0:	27bdfef8 	addiu	sp,sp,-264
bfc07cc4:	0000003f 	ust
bfc07cc8:	afbf0004 	sw	ra,4(sp)
bfc07ccc:	afb00008 	sw	s0,8(sp)
bfc07cd0:	afb1000c 	sw	s1,12(sp)
bfc07cd4:	afb20010 	sw	s2,16(sp)
bfc07cd8:	afb30014 	sw	s3,20(sp)
bfc07cdc:	afb40018 	sw	s4,24(sp)
bfc07ce0:	afbe0000 	sw	s8,0(sp)
bfc07ce4:	4bf01f3a 	cqip	bfc07ce8 <loadtree+0x2c>
bfc07ce8:	53f01f3a 	pslice_entry	bfc07ce8 <loadtree+0x2c>
bfc07cec:	27bdfef8 	addiu	sp,sp,-264
bfc07cf0:	57f01f3a 	pslice_exit	bfc07ce8 <loadtree+0x2c>
bfc07cf4:	b3f01f4d 	spawn	bfc07d34 <loadtree+0x78>
bfc07cf8:	b3f01fbf 	spawn	bfc07efc <loadtree+0x240>
bfc07cfc:	8fb200e8 	lw	s2,232(sp)
bfc07d00:	8fb300ec 	lw	s3,236(sp)
bfc07d04:	8fb100f0 	lw	s1,240(sp)
bfc07d08:	00808021 	move	s0,a0
bfc07d0c:	afa500f4 	sw	a1,244(sp)
bfc07d10:	afa600f8 	sw	a2,248(sp)
bfc07d14:	afa700fc 	sw	a3,252(sp)
bfc07d18:	24190000 	li	t9,0
bfc07d1c:	02392026 	xor	a0,s1,t9
bfc07d20:	2c840001 	sltiu	a0,a0,1
bfc07d24:	1080000e 	beqz	a0,bfc07d60 <loadtree+0xa4>
bfc07d28:	00000000 	nop
bfc07d2c:	02001021 	move	v0,s0
bfc07d30:	4bf01f4d 	cqip	bfc07d34 <loadtree+0x78>
bfc07d34:	53f01f4d 	pslice_entry	bfc07d34 <loadtree+0x78>
bfc07d38:	57f01f4d 	pslice_exit	bfc07d34 <loadtree+0x78>
bfc07d3c:	8fbf0004 	lw	ra,4(sp)
bfc07d40:	8fb00008 	lw	s0,8(sp)
bfc07d44:	8fb1000c 	lw	s1,12(sp)
bfc07d48:	8fb20010 	lw	s2,16(sp)
bfc07d4c:	8fb30014 	lw	s3,20(sp)
bfc07d50:	8fb40018 	lw	s4,24(sp)
bfc07d54:	8fbd0000 	lw	sp,0(sp)
bfc07d58:	03e00008 	jr	ra
bfc07d5c:	00000000 	nop
bfc07d60:	00002821 	move	a1,zero
bfc07d64:	02653026 	xor	a2,s3,a1
bfc07d68:	0006302b 	sltu	a2,zero,a2
bfc07d6c:	00003821 	move	a3,zero
bfc07d70:	00c71026 	xor	v0,a2,a3
bfc07d74:	2c420001 	sltiu	v0,v0,1
bfc07d78:	10400010 	beqz	v0,bfc07dbc <loadtree+0x100>
bfc07d7c:	00000000 	nop
bfc07d80:	3c08bfc0 	lui	t0,0xbfc0
bfc07d84:	250803fc 	addiu	t0,t0,1020
bfc07d88:	27840527 	addiu	a0,gp,1319
bfc07d8c:	24050002 	li	a1,2
bfc07d90:	03a0f021 	move	s8,sp
bfc07d94:	03a0003e 	fst	sp
bfc07d98:	03e04009 	jalr	t0,ra
bfc07d9c:	00000000 	nop
bfc07da0:	3c08bfc0 	lui	t0,0xbfc0
bfc07da4:	2508045c 	addiu	t0,t0,1116
bfc07da8:	00002021 	move	a0,zero
bfc07dac:	03a0f021 	move	s8,sp
bfc07db0:	03a0003e 	fst	sp
bfc07db4:	03e04009 	jalr	t0,ra
bfc07db8:	00000000 	nop
bfc07dbc:	00001821 	move	v1,zero
bfc07dc0:	02234021 	addu	t0,s1,v1
bfc07dc4:	850d0000 	lh	t5,0(t0)
bfc07dc8:	24090001 	li	t1,1
bfc07dcc:	01a95026 	xor	t2,t5,t1
bfc07dd0:	2d4a0001 	sltiu	t2,t2,1
bfc07dd4:	1140001a 	beqz	t2,bfc07e40 <loadtree+0x184>
bfc07dd8:	00000000 	nop
bfc07ddc:	00002021 	move	a0,zero
bfc07de0:	3c08bfc0 	lui	t0,0xbfc0
bfc07de4:	25087850 	addiu	t0,t0,30800
bfc07de8:	03a0f021 	move	s8,sp
bfc07dec:	03a0003e 	fst	sp
bfc07df0:	03e04009 	jalr	t0,ra
bfc07df4:	00000000 	nop
bfc07df8:	0040a021 	move	s4,v0
bfc07dfc:	3c08bfc1 	lui	t0,0xbfc1
bfc07e00:	25088874 	addiu	t0,t0,-30604
bfc07e04:	02202021 	move	a0,s1
bfc07e08:	02402821 	move	a1,s2
bfc07e0c:	02603021 	move	a2,s3
bfc07e10:	03a0f021 	move	s8,sp
bfc07e14:	03a0003e 	fst	sp
bfc07e18:	03e04009 	jalr	t0,ra
bfc07e1c:	00000000 	nop
bfc07e20:	240b0030 	li	t3,48
bfc07e24:	028b7021 	addu	t6,s4,t3
bfc07e28:	240c0004 	li	t4,4
bfc07e2c:	004c0018 	mult	v0,t4
bfc07e30:	00006812 	mflo	t5
bfc07e34:	01cd7021 	addu	t6,t6,t5
bfc07e38:	add10000 	sw	s1,0(t6)
bfc07e3c:	02808821 	move	s1,s4
bfc07e40:	3c08bfc0 	lui	t0,0xbfc0
bfc07e44:	25087594 	addiu	t0,t0,30100
bfc07e48:	27af00f4 	addiu	t7,sp,244
bfc07e4c:	8de40000 	lw	a0,0(t7)
bfc07e50:	8de50004 	lw	a1,4(t7)
bfc07e54:	8de60008 	lw	a2,8(t7)
bfc07e58:	8de7000c 	lw	a3,12(t7)
bfc07e5c:	03a0f021 	move	s8,sp
bfc07e60:	03a0003e 	fst	sp
bfc07e64:	afb3ffec 	sw	s3,-20(sp)
bfc07e68:	03e04009 	jalr	t0,ra
bfc07e6c:	00000000 	nop
bfc07e70:	24180030 	li	t8,48
bfc07e74:	0238c021 	addu	t8,s1,t8
bfc07e78:	24190004 	li	t9,4
bfc07e7c:	00590018 	mult	v0,t9
bfc07e80:	00002012 	mflo	a0
bfc07e84:	03042821 	addu	a1,t8,a0
bfc07e88:	8ca30000 	lw	v1,0(a1)
bfc07e8c:	24070030 	li	a3,48
bfc07e90:	02277821 	addu	t7,s1,a3
bfc07e94:	24080004 	li	t0,4
bfc07e98:	00480018 	mult	v0,t0
bfc07e9c:	00004012 	mflo	t0
bfc07ea0:	01e8a021 	addu	s4,t7,t0
bfc07ea4:	3c08bfc0 	lui	t0,0xbfc0
bfc07ea8:	25087cbc 	addiu	t0,t0,31932
bfc07eac:	24090001 	li	t1,1
bfc07eb0:	01334807 	srav	t1,s3,t1
bfc07eb4:	02002021 	move	a0,s0
bfc07eb8:	27aa00f4 	addiu	t2,sp,244
bfc07ebc:	8d450000 	lw	a1,0(t2)
bfc07ec0:	8d460004 	lw	a2,4(t2)
bfc07ec4:	8d470008 	lw	a3,8(t2)
bfc07ec8:	03a0f021 	move	s8,sp
bfc07ecc:	03a0003e 	fst	sp
bfc07ed0:	27ab0000 	addiu	t3,sp,0
bfc07ed4:	8d4c000c 	lw	t4,12(t2)
bfc07ed8:	ad6cfffc 	sw	t4,-4(t3)
bfc07edc:	afa3ffe8 	sw	v1,-24(sp)
bfc07ee0:	afa9ffe4 	sw	t1,-28(sp)
bfc07ee4:	afb2ffe0 	sw	s2,-32(sp)
bfc07ee8:	03e04009 	jalr	t0,ra
bfc07eec:	00000000 	nop
bfc07ef0:	ae820000 	sw	v0,0(s4)
bfc07ef4:	02201021 	move	v0,s1
bfc07ef8:	4bf01fbf 	cqip	bfc07efc <loadtree+0x240>
bfc07efc:	53f01fbf 	pslice_entry	bfc07efc <loadtree+0x240>
bfc07f00:	57f01fbf 	pslice_exit	bfc07efc <loadtree+0x240>
bfc07f04:	8fbf0004 	lw	ra,4(sp)
bfc07f08:	8fb00008 	lw	s0,8(sp)
bfc07f0c:	8fb1000c 	lw	s1,12(sp)
bfc07f10:	8fb20010 	lw	s2,16(sp)
bfc07f14:	8fb30014 	lw	s3,20(sp)
bfc07f18:	8fb40018 	lw	s4,24(sp)
bfc07f1c:	8fbd0000 	lw	sp,0(sp)
bfc07f20:	03e00008 	jr	ra
bfc07f24:	00000000 	nop

bfc07f28 <expandbox>:
bfc07f28:	b3f01fd5 	spawn	bfc07f54 <expandbox+0x2c>
bfc07f2c:	27bdfd90 	addiu	sp,sp,-624
bfc07f30:	0000003f 	ust
bfc07f34:	afbf0004 	sw	ra,4(sp)
bfc07f38:	afb00008 	sw	s0,8(sp)
bfc07f3c:	afb1000c 	sw	s1,12(sp)
bfc07f40:	afb20010 	sw	s2,16(sp)
bfc07f44:	e7b40018 	swc1	$f20,24(sp)
bfc07f48:	e7b5001c 	swc1	$f21,28(sp)
bfc07f4c:	afbe0000 	sw	s8,0(sp)
bfc07f50:	4bf01fd5 	cqip	bfc07f54 <expandbox+0x2c>
bfc07f54:	53f01fd5 	pslice_entry	bfc07f54 <expandbox+0x2c>
bfc07f58:	27bdfd90 	addiu	sp,sp,-624
bfc07f5c:	57f01fd5 	pslice_exit	bfc07f54 <expandbox+0x2c>
bfc07f60:	b3f020c8 	spawn	bfc08320 <expandbox+0x3f8>
bfc07f64:	00809021 	move	s2,a0
bfc07f68:	00a08821 	move	s1,a1
bfc07f6c:	3c08bfc1 	lui	t0,0xbfc1
bfc07f70:	2508863c 	addiu	t0,t0,-31172
bfc07f74:	02402021 	move	a0,s2
bfc07f78:	02202821 	move	a1,s1
bfc07f7c:	03a0f021 	move	s8,sp
bfc07f80:	03a0003e 	fst	sp
bfc07f84:	03e04009 	jalr	t0,ra
bfc07f88:	00000000 	nop
bfc07f8c:	00408021 	move	s0,v0
bfc07f90:	0000c021 	move	t8,zero
bfc07f94:	0218c826 	xor	t9,s0,t8
bfc07f98:	0019c82b 	sltu	t9,zero,t9
bfc07f9c:	00002021 	move	a0,zero
bfc07fa0:	03242826 	xor	a1,t9,a0
bfc07fa4:	2ca50001 	sltiu	a1,a1,1
bfc07fa8:	10a000dc 	beqz	a1,bfc0831c <expandbox+0x3f4>
bfc07fac:	00000000 	nop
bfc07fb0:	24060018 	li	a2,24
bfc07fb4:	02263821 	addu	a3,s1,a2
bfc07fb8:	c4f40000 	lwc1	$f20,0(a3)
bfc07fbc:	c4f50004 	lwc1	$f21,4(a3)
bfc07fc0:	c7840690 	lwc1	$f4,1680(gp)
bfc07fc4:	c7850694 	lwc1	$f5,1684(gp)
bfc07fc8:	24020001 	li	v0,1
bfc07fcc:	4624a03c 	c.lt.d	$f20,$f4
bfc07fd0:	45010002 	bc1t	bfc07fdc <expandbox+0xb4>
bfc07fd4:	00000000 	nop
bfc07fd8:	00001021 	move	v0,zero
bfc07fdc:	00001821 	move	v1,zero
bfc07fe0:	00434026 	xor	t0,v0,v1
bfc07fe4:	2d080001 	sltiu	t0,t0,1
bfc07fe8:	11000010 	beqz	t0,bfc0802c <expandbox+0x104>
bfc07fec:	00000000 	nop
bfc07ff0:	3c08bfc0 	lui	t0,0xbfc0
bfc07ff4:	250803fc 	addiu	t0,t0,1020
bfc07ff8:	27840527 	addiu	a0,gp,1319
bfc07ffc:	240503e7 	li	a1,999
bfc08000:	03a0f021 	move	s8,sp
bfc08004:	03a0003e 	fst	sp
bfc08008:	03e04009 	jalr	t0,ra
bfc0800c:	00000000 	nop
bfc08010:	3c08bfc0 	lui	t0,0xbfc0
bfc08014:	2508045c 	addiu	t0,t0,1116
bfc08018:	00002021 	move	a0,zero
bfc0801c:	03a0f021 	move	s8,sp
bfc08020:	03a0003e 	fst	sp
bfc08024:	03e04009 	jalr	t0,ra
bfc08028:	00000000 	nop
bfc0802c:	00004821 	move	t1,zero
bfc08030:	27aa0230 	addiu	t2,sp,560
bfc08034:	240b0008 	li	t3,8
bfc08038:	012b0018 	mult	t1,t3
bfc0803c:	00006012 	mflo	t4
bfc08040:	014c6821 	addu	t5,t2,t4
bfc08044:	240e0008 	li	t6,8
bfc08048:	012e0018 	mult	t1,t6
bfc0804c:	00007812 	mflo	t7
bfc08050:	022fc021 	addu	t8,s1,t7
bfc08054:	c7060000 	lwc1	$f6,0(t8)
bfc08058:	c7070004 	lwc1	$f7,4(t8)
bfc0805c:	3c013fe0 	lui	at,0x3fe0
bfc08060:	44814800 	mtc1	at,$f9
bfc08064:	44804000 	mtc1	zero,$f8
bfc08068:	46344282 	mul.d	$f10,$f8,$f20
bfc0806c:	462a3400 	add.d	$f16,$f6,$f10
bfc08070:	e5b00000 	swc1	$f16,0(t5)
bfc08074:	e5b10004 	swc1	$f17,4(t5)
bfc08078:	24190001 	li	t9,1
bfc0807c:	01394821 	addu	t1,t1,t9
bfc08080:	24040003 	li	a0,3
bfc08084:	0124282a 	slt	a1,t1,a0
bfc08088:	38a50001 	xori	a1,a1,0x1
bfc0808c:	10a0ffe8 	beqz	a1,bfc08030 <expandbox+0x108>
bfc08090:	00000000 	nop
bfc08094:	00001021 	move	v0,zero
bfc08098:	24060010 	li	a2,16
bfc0809c:	02466821 	addu	t5,s2,a2
bfc080a0:	24070008 	li	a3,8
bfc080a4:	00470018 	mult	v0,a3
bfc080a8:	00001812 	mflo	v1
bfc080ac:	01a31821 	addu	v1,t5,v1
bfc080b0:	c4720000 	lwc1	$f18,0(v1)
bfc080b4:	c4730004 	lwc1	$f19,4(v1)
bfc080b8:	27a80230 	addiu	t0,sp,560
bfc080bc:	24090008 	li	t1,8
bfc080c0:	00490018 	mult	v0,t1
bfc080c4:	00005012 	mflo	t2
bfc080c8:	010a5821 	addu	t3,t0,t2
bfc080cc:	c56c0000 	lwc1	$f12,0(t3)
bfc080d0:	c56d0004 	lwc1	$f13,4(t3)
bfc080d4:	240c0001 	li	t4,1
bfc080d8:	462c903c 	c.lt.d	$f18,$f12
bfc080dc:	45010002 	bc1t	bfc080e8 <expandbox+0x1c0>
bfc080e0:	00000000 	nop
bfc080e4:	00006021 	move	t4,zero
bfc080e8:	1180000e 	beqz	t4,bfc08124 <expandbox+0x1fc>
bfc080ec:	00000000 	nop
bfc080f0:	240d0008 	li	t5,8
bfc080f4:	004d0018 	mult	v0,t5
bfc080f8:	00007012 	mflo	t6
bfc080fc:	022e7821 	addu	t7,s1,t6
bfc08100:	c5ee0000 	lwc1	$f14,0(t7)
bfc08104:	c5ef0004 	lwc1	$f15,4(t7)
bfc08108:	24180008 	li	t8,8
bfc0810c:	00580018 	mult	v0,t8
bfc08110:	0000c812 	mflo	t9
bfc08114:	02392021 	addu	a0,s1,t9
bfc08118:	46347001 	sub.d	$f0,$f14,$f20
bfc0811c:	e4800000 	swc1	$f0,0(a0)
bfc08120:	e4810004 	swc1	$f1,4(a0)
bfc08124:	24050001 	li	a1,1
bfc08128:	00451021 	addu	v0,v0,a1
bfc0812c:	24060003 	li	a2,3
bfc08130:	0046382a 	slt	a3,v0,a2
bfc08134:	38e70001 	xori	a3,a3,0x1
bfc08138:	10e0ffd7 	beqz	a3,bfc08098 <expandbox+0x170>
bfc0813c:	00000000 	nop
bfc08140:	24020018 	li	v0,24
bfc08144:	02221821 	addu	v1,s1,v0
bfc08148:	3c014000 	lui	at,0x4000
bfc0814c:	44811800 	mtc1	at,$f3
bfc08150:	44801000 	mtc1	zero,$f2
bfc08154:	46341102 	mul.d	$f4,$f2,$f20
bfc08158:	e4640000 	swc1	$f4,0(v1)
bfc0815c:	e4650004 	swc1	$f5,4(v1)
bfc08160:	24080018 	li	t0,24
bfc08164:	02284821 	addu	t1,s1,t0
bfc08168:	c5340000 	lwc1	$f20,0(t1)
bfc0816c:	c5350004 	lwc1	$f21,4(t1)
bfc08170:	240a0020 	li	t2,32
bfc08174:	022a5821 	addu	t3,s1,t2
bfc08178:	8d6c0000 	lw	t4,0(t3)
bfc0817c:	240d0000 	li	t5,0
bfc08180:	018d7026 	xor	t6,t4,t5
bfc08184:	000e702b 	sltu	t6,zero,t6
bfc08188:	11c0005c 	beqz	t6,bfc082fc <expandbox+0x3d4>
bfc0818c:	00000000 	nop
bfc08190:	3c08bfc0 	lui	t0,0xbfc0
bfc08194:	25087850 	addiu	t0,t0,30800
bfc08198:	00002021 	move	a0,zero
bfc0819c:	03a0f021 	move	s8,sp
bfc081a0:	03a0003e 	fst	sp
bfc081a4:	03e04009 	jalr	t0,ra
bfc081a8:	00000000 	nop
bfc081ac:	00408021 	move	s0,v0
bfc081b0:	3c08bfc1 	lui	t0,0xbfc1
bfc081b4:	2508834c 	addiu	t0,t0,-31924
bfc081b8:	27af0230 	addiu	t7,sp,560
bfc081bc:	c5ee0000 	lwc1	$f14,0(t7)
bfc081c0:	c5ef0004 	lwc1	$f15,4(t7)
bfc081c4:	27b80238 	addiu	t8,sp,568
bfc081c8:	c7060000 	lwc1	$f6,0(t8)
bfc081cc:	c7070004 	lwc1	$f7,4(t8)
bfc081d0:	27b90240 	addiu	t9,sp,576
bfc081d4:	c7280000 	lwc1	$f8,0(t9)
bfc081d8:	c7290004 	lwc1	$f9,4(t9)
bfc081dc:	27a40250 	addiu	a0,sp,592
bfc081e0:	44067000 	mfc1	a2,$f14
bfc081e4:	44077800 	mfc1	a3,$f15
bfc081e8:	03a0f021 	move	s8,sp
bfc081ec:	03a0003e 	fst	sp
bfc081f0:	e7a6ffe8 	swc1	$f6,-24(sp)
bfc081f4:	e7a7ffec 	swc1	$f7,-20(sp)
bfc081f8:	e7a8ffe0 	swc1	$f8,-32(sp)
bfc081fc:	e7a9ffe4 	swc1	$f9,-28(sp)
bfc08200:	afb1ffdc 	sw	s1,-36(sp)
bfc08204:	03e04009 	jalr	t0,ra
bfc08208:	00000000 	nop
bfc0820c:	27a4025c 	addiu	a0,sp,604
bfc08210:	848e0000 	lh	t6,0(a0)
bfc08214:	00002821 	move	a1,zero
bfc08218:	01c53026 	xor	a2,t6,a1
bfc0821c:	0006302b 	sltu	a2,zero,a2
bfc08220:	00003821 	move	a3,zero
bfc08224:	00c71026 	xor	v0,a2,a3
bfc08228:	2c420001 	sltiu	v0,v0,1
bfc0822c:	10400010 	beqz	v0,bfc08270 <expandbox+0x348>
bfc08230:	00000000 	nop
bfc08234:	3c08bfc0 	lui	t0,0xbfc0
bfc08238:	250803fc 	addiu	t0,t0,1020
bfc0823c:	27840527 	addiu	a0,gp,1319
bfc08240:	24050001 	li	a1,1
bfc08244:	03a0f021 	move	s8,sp
bfc08248:	03a0003e 	fst	sp
bfc0824c:	03e04009 	jalr	t0,ra
bfc08250:	00000000 	nop
bfc08254:	3c08bfc0 	lui	t0,0xbfc0
bfc08258:	2508045c 	addiu	t0,t0,1116
bfc0825c:	00002021 	move	a0,zero
bfc08260:	03a0f021 	move	s8,sp
bfc08264:	03a0003e 	fst	sp
bfc08268:	03e04009 	jalr	t0,ra
bfc0826c:	00000000 	nop
bfc08270:	3c08bfc0 	lui	t0,0xbfc0
bfc08274:	25087594 	addiu	t0,t0,30100
bfc08278:	3c032000 	lui	v1,0x2000
bfc0827c:	27a90250 	addiu	t1,sp,592
bfc08280:	8d240000 	lw	a0,0(t1)
bfc08284:	8d250004 	lw	a1,4(t1)
bfc08288:	8d260008 	lw	a2,8(t1)
bfc0828c:	8d27000c 	lw	a3,12(t1)
bfc08290:	03a0f021 	move	s8,sp
bfc08294:	03a0003e 	fst	sp
bfc08298:	afa3ffec 	sw	v1,-20(sp)
bfc0829c:	03e04009 	jalr	t0,ra
bfc082a0:	00000000 	nop
bfc082a4:	24090030 	li	t1,48
bfc082a8:	02097821 	addu	t7,s0,t1
bfc082ac:	240a0004 	li	t2,4
bfc082b0:	004a0018 	mult	v0,t2
bfc082b4:	00005812 	mflo	t3
bfc082b8:	01eb6021 	addu	t4,t7,t3
bfc082bc:	240d0020 	li	t5,32
bfc082c0:	022d7021 	addu	t6,s1,t5
bfc082c4:	8dcf0000 	lw	t7,0(t6)
bfc082c8:	ad8f0000 	sw	t7,0(t4)
bfc082cc:	24180020 	li	t8,32
bfc082d0:	0238c821 	addu	t9,s1,t8
bfc082d4:	af300000 	sw	s0,0(t9)
bfc082d8:	3c08bfc1 	lui	t0,0xbfc1
bfc082dc:	2508863c 	addiu	t0,t0,-31172
bfc082e0:	02402021 	move	a0,s2
bfc082e4:	02202821 	move	a1,s1
bfc082e8:	03a0f021 	move	s8,sp
bfc082ec:	03a0003e 	fst	sp
bfc082f0:	03e04009 	jalr	t0,ra
bfc082f4:	00000000 	nop
bfc082f8:	00408021 	move	s0,v0
bfc082fc:	00002021 	move	a0,zero
bfc08300:	02042826 	xor	a1,s0,a0
bfc08304:	0005282b 	sltu	a1,zero,a1
bfc08308:	00003021 	move	a2,zero
bfc0830c:	00a63826 	xor	a3,a1,a2
bfc08310:	2ce70001 	sltiu	a3,a3,1
bfc08314:	14e0ff26 	bnez	a3,bfc07fb0 <expandbox+0x88>
bfc08318:	00000000 	nop
bfc0831c:	4bf020c8 	cqip	bfc08320 <expandbox+0x3f8>
bfc08320:	53f020c8 	pslice_entry	bfc08320 <expandbox+0x3f8>
bfc08324:	57f020c8 	pslice_exit	bfc08320 <expandbox+0x3f8>
bfc08328:	8fbf0004 	lw	ra,4(sp)
bfc0832c:	8fb00008 	lw	s0,8(sp)
bfc08330:	8fb1000c 	lw	s1,12(sp)
bfc08334:	8fb20010 	lw	s2,16(sp)
bfc08338:	c7b40018 	lwc1	$f20,24(sp)
bfc0833c:	c7b5001c 	lwc1	$f21,28(sp)
bfc08340:	8fbd0000 	lw	sp,0(sp)
bfc08344:	03e00008 	jr	ra
bfc08348:	00000000 	nop

bfc0834c <intcoord1>:
bfc0834c:	b3f020dd 	spawn	bfc08374 <intcoord1+0x28>
bfc08350:	27bdfe40 	addiu	sp,sp,-448
bfc08354:	0000003f 	ust
bfc08358:	afbf0004 	sw	ra,4(sp)
bfc0835c:	e7b40008 	swc1	$f20,8(sp)
bfc08360:	e7b5000c 	swc1	$f21,12(sp)
bfc08364:	e7b60010 	swc1	$f22,16(sp)
bfc08368:	e7b70014 	swc1	$f23,20(sp)
bfc0836c:	afbe0000 	sw	s8,0(sp)
bfc08370:	4bf020dd 	cqip	bfc08374 <intcoord1+0x28>
bfc08374:	53f020dd 	pslice_entry	bfc08374 <intcoord1+0x28>
bfc08378:	27bdfe40 	addiu	sp,sp,-448
bfc0837c:	57f020dd 	pslice_exit	bfc08374 <intcoord1+0x28>
bfc08380:	c7b401a0 	lwc1	$f20,416(sp)
bfc08384:	c7b501a4 	lwc1	$f21,420(sp)
bfc08388:	c7b601a8 	lwc1	$f22,424(sp)
bfc0838c:	c7b701ac 	lwc1	$f23,428(sp)
bfc08390:	8fae019c 	lw	t6,412(sp)
bfc08394:	44867000 	mtc1	a2,$f14
bfc08398:	44877800 	mtc1	a3,$f15
bfc0839c:	27af018c 	addiu	t7,sp,396
bfc083a0:	24180001 	li	t8,1
bfc083a4:	a5f80000 	sh	t8,0(t7)
bfc083a8:	0000c821 	move	t9,zero
bfc083ac:	01d95821 	addu	t3,t6,t9
bfc083b0:	c5640000 	lwc1	$f4,0(t3)
bfc083b4:	c5650004 	lwc1	$f5,4(t3)
bfc083b8:	46247101 	sub.d	$f4,$f14,$f4
bfc083bc:	24050018 	li	a1,24
bfc083c0:	01c52821 	addu	a1,t6,a1
bfc083c4:	c4a60000 	lwc1	$f6,0(a1)
bfc083c8:	c4a70004 	lwc1	$f7,4(a1)
bfc083cc:	46262203 	div.d	$f8,$f4,$f6
bfc083d0:	24010000 	li	at,0
bfc083d4:	44815800 	mtc1	at,$f11
bfc083d8:	44805000 	mtc1	zero,$f10
bfc083dc:	240c0001 	li	t4,1
bfc083e0:	4628503e 	c.le.d	$f10,$f8
bfc083e4:	45010002 	bc1t	bfc083f0 <intcoord1+0xa4>
bfc083e8:	00000000 	nop
bfc083ec:	00006021 	move	t4,zero
bfc083f0:	15800003 	bnez	t4,bfc08400 <intcoord1+0xb4>
bfc083f4:	00000000 	nop
bfc083f8:	0bf02108 	j	bfc08420 <intcoord1+0xd4>
bfc083fc:	00000000 	nop
bfc08400:	3c013ff0 	lui	at,0x3ff0
bfc08404:	44818800 	mtc1	at,$f17
bfc08408:	44808000 	mtc1	zero,$f16
bfc0840c:	240c0001 	li	t4,1
bfc08410:	4630403c 	c.lt.d	$f8,$f16
bfc08414:	45010002 	bc1t	bfc08420 <intcoord1+0xd4>
bfc08418:	00000000 	nop
bfc0841c:	00006021 	move	t4,zero
bfc08420:	1180000f 	beqz	t4,bfc08460 <intcoord1+0x114>
bfc08424:	00000000 	nop
bfc08428:	27a60180 	addiu	a2,sp,384
bfc0842c:	3c0141d0 	lui	at,0x41d0
bfc08430:	44819800 	mtc1	at,$f19
bfc08434:	44809000 	mtc1	zero,$f18
bfc08438:	46289302 	mul.d	$f12,$f18,$f8
bfc0843c:	462063a4 	cvt.w.d	$f14,$f12
bfc08440:	44077000 	mfc1	a3,$f14
bfc08444:	44870000 	mtc1	a3,$f0
bfc08448:	468000a1 	cvt.d.w	$f2,$f0
bfc0844c:	46201124 	cvt.w.d	$f4,$f2
bfc08450:	44022000 	mfc1	v0,$f4
bfc08454:	acc20000 	sw	v0,0(a2)
bfc08458:	0bf0211b 	j	bfc0846c <intcoord1+0x120>
bfc0845c:	00000000 	nop
bfc08460:	27a3018c 	addiu	v1,sp,396
bfc08464:	00004021 	move	t0,zero
bfc08468:	a4680000 	sh	t0,0(v1)
bfc0846c:	24090008 	li	t1,8
bfc08470:	01c95021 	addu	t2,t6,t1
bfc08474:	c5460000 	lwc1	$f6,0(t2)
bfc08478:	c5470004 	lwc1	$f7,4(t2)
bfc0847c:	4626b201 	sub.d	$f8,$f22,$f6
bfc08480:	240b0018 	li	t3,24
bfc08484:	01cb6821 	addu	t5,t6,t3
bfc08488:	c5aa0000 	lwc1	$f10,0(t5)
bfc0848c:	c5ab0004 	lwc1	$f11,4(t5)
bfc08490:	462a4203 	div.d	$f8,$f8,$f10
bfc08494:	24010000 	li	at,0
bfc08498:	44818800 	mtc1	at,$f17
bfc0849c:	44808000 	mtc1	zero,$f16
bfc084a0:	240d0001 	li	t5,1
bfc084a4:	4628803e 	c.le.d	$f16,$f8
bfc084a8:	45010002 	bc1t	bfc084b4 <intcoord1+0x168>
bfc084ac:	00000000 	nop
bfc084b0:	00006821 	move	t5,zero
bfc084b4:	15a00003 	bnez	t5,bfc084c4 <intcoord1+0x178>
bfc084b8:	00000000 	nop
bfc084bc:	0bf02139 	j	bfc084e4 <intcoord1+0x198>
bfc084c0:	00000000 	nop
bfc084c4:	3c013ff0 	lui	at,0x3ff0
bfc084c8:	44819800 	mtc1	at,$f19
bfc084cc:	44809000 	mtc1	zero,$f18
bfc084d0:	240d0001 	li	t5,1
bfc084d4:	4632403c 	c.lt.d	$f8,$f18
bfc084d8:	45010002 	bc1t	bfc084e4 <intcoord1+0x198>
bfc084dc:	00000000 	nop
bfc084e0:	00006821 	move	t5,zero
bfc084e4:	11a0000f 	beqz	t5,bfc08524 <intcoord1+0x1d8>
bfc084e8:	00000000 	nop
bfc084ec:	27af0184 	addiu	t7,sp,388
bfc084f0:	3c0141d0 	lui	at,0x41d0
bfc084f4:	44816800 	mtc1	at,$f13
bfc084f8:	44806000 	mtc1	zero,$f12
bfc084fc:	46286382 	mul.d	$f14,$f12,$f8
bfc08500:	46207024 	cvt.w.d	$f0,$f14
bfc08504:	44180000 	mfc1	t8,$f0
bfc08508:	44981000 	mtc1	t8,$f2
bfc0850c:	46801121 	cvt.d.w	$f4,$f2
bfc08510:	462021a4 	cvt.w.d	$f6,$f4
bfc08514:	44183000 	mfc1	t8,$f6
bfc08518:	adf80000 	sw	t8,0(t7)
bfc0851c:	0bf0214c 	j	bfc08530 <intcoord1+0x1e4>
bfc08520:	00000000 	nop
bfc08524:	27b9018c 	addiu	t9,sp,396
bfc08528:	00002821 	move	a1,zero
bfc0852c:	a7250000 	sh	a1,0(t9)
bfc08530:	24050010 	li	a1,16
bfc08534:	01c53021 	addu	a2,t6,a1
bfc08538:	c4c80000 	lwc1	$f8,0(a2)
bfc0853c:	c4c90004 	lwc1	$f9,4(a2)
bfc08540:	4628a281 	sub.d	$f10,$f20,$f8
bfc08544:	24070018 	li	a3,24
bfc08548:	01c71021 	addu	v0,t6,a3
bfc0854c:	c4500000 	lwc1	$f16,0(v0)
bfc08550:	c4510004 	lwc1	$f17,4(v0)
bfc08554:	46305203 	div.d	$f8,$f10,$f16
bfc08558:	24010000 	li	at,0
bfc0855c:	44819800 	mtc1	at,$f19
bfc08560:	44809000 	mtc1	zero,$f18
bfc08564:	240e0001 	li	t6,1
bfc08568:	4628903e 	c.le.d	$f18,$f8
bfc0856c:	45010002 	bc1t	bfc08578 <intcoord1+0x22c>
bfc08570:	00000000 	nop
bfc08574:	00007021 	move	t6,zero
bfc08578:	15c00003 	bnez	t6,bfc08588 <intcoord1+0x23c>
bfc0857c:	00000000 	nop
bfc08580:	0bf0216a 	j	bfc085a8 <intcoord1+0x25c>
bfc08584:	00000000 	nop
bfc08588:	3c013ff0 	lui	at,0x3ff0
bfc0858c:	44816800 	mtc1	at,$f13
bfc08590:	44806000 	mtc1	zero,$f12
bfc08594:	240e0001 	li	t6,1
bfc08598:	462c403c 	c.lt.d	$f8,$f12
bfc0859c:	45010002 	bc1t	bfc085a8 <intcoord1+0x25c>
bfc085a0:	00000000 	nop
bfc085a4:	00007021 	move	t6,zero
bfc085a8:	11c0000f 	beqz	t6,bfc085e8 <intcoord1+0x29c>
bfc085ac:	00000000 	nop
bfc085b0:	27a30188 	addiu	v1,sp,392
bfc085b4:	3c0141d0 	lui	at,0x41d0
bfc085b8:	44817800 	mtc1	at,$f15
bfc085bc:	44807000 	mtc1	zero,$f14
bfc085c0:	46287002 	mul.d	$f0,$f14,$f8
bfc085c4:	462000a4 	cvt.w.d	$f2,$f0
bfc085c8:	44081000 	mfc1	t0,$f2
bfc085cc:	44882000 	mtc1	t0,$f4
bfc085d0:	468021a1 	cvt.d.w	$f6,$f4
bfc085d4:	46203224 	cvt.w.d	$f8,$f6
bfc085d8:	44094000 	mfc1	t1,$f8
bfc085dc:	ac690000 	sw	t1,0(v1)
bfc085e0:	0bf0217d 	j	bfc085f4 <intcoord1+0x2a8>
bfc085e4:	00000000 	nop
bfc085e8:	27aa018c 	addiu	t2,sp,396
bfc085ec:	00005821 	move	t3,zero
bfc085f0:	a54b0000 	sh	t3,0(t2)
bfc085f4:	27ac0180 	addiu	t4,sp,384
bfc085f8:	248d0000 	addiu	t5,a0,0
bfc085fc:	8d8e0000 	lw	t6,0(t4)
bfc08600:	8d8f0004 	lw	t7,4(t4)
bfc08604:	8d980008 	lw	t8,8(t4)
bfc08608:	adae0000 	sw	t6,0(t5)
bfc0860c:	adaf0004 	sw	t7,4(t5)
bfc08610:	adb80008 	sw	t8,8(t5)
bfc08614:	8d99000c 	lw	t9,12(t4)
bfc08618:	adb9000c 	sw	t9,12(t5)
bfc0861c:	8fbf0004 	lw	ra,4(sp)
bfc08620:	c7b40008 	lwc1	$f20,8(sp)
bfc08624:	c7b5000c 	lwc1	$f21,12(sp)
bfc08628:	c7b60010 	lwc1	$f22,16(sp)
bfc0862c:	c7b70014 	lwc1	$f23,20(sp)
bfc08630:	8fbd0000 	lw	sp,0(sp)
bfc08634:	03e00008 	jr	ra
bfc08638:	00000000 	nop

bfc0863c <ic_test>:
bfc0863c:	b3f02194 	spawn	bfc08650 <ic_test+0x14>
bfc08640:	27bdfe98 	addiu	sp,sp,-360
bfc08644:	0000003f 	ust
bfc08648:	afbe0000 	sw	s8,0(sp)
bfc0864c:	4bf02194 	cqip	bfc08650 <ic_test+0x14>
bfc08650:	53f02194 	pslice_entry	bfc08650 <ic_test+0x14>
bfc08654:	27bdfe98 	addiu	sp,sp,-360
bfc08658:	57f02194 	pslice_exit	bfc08650 <ic_test+0x14>
bfc0865c:	24020001 	li	v0,1
bfc08660:	27b80130 	addiu	t8,sp,304
bfc08664:	24190010 	li	t9,16
bfc08668:	00996021 	addu	t4,a0,t9
bfc0866c:	c5840000 	lwc1	$f4,0(t4)
bfc08670:	c5850004 	lwc1	$f5,4(t4)
bfc08674:	e7040000 	swc1	$f4,0(t8)
bfc08678:	e7050004 	swc1	$f5,4(t8)
bfc0867c:	27a60138 	addiu	a2,sp,312
bfc08680:	24070018 	li	a3,24
bfc08684:	00873821 	addu	a3,a0,a3
bfc08688:	c4e60000 	lwc1	$f6,0(a3)
bfc0868c:	c4e70004 	lwc1	$f7,4(a3)
bfc08690:	e4c60000 	swc1	$f6,0(a2)
bfc08694:	e4c70004 	swc1	$f7,4(a2)
bfc08698:	27a70140 	addiu	a3,sp,320
bfc0869c:	24030020 	li	v1,32
bfc086a0:	00831821 	addu	v1,a0,v1
bfc086a4:	c4680000 	lwc1	$f8,0(v1)
bfc086a8:	c4690004 	lwc1	$f9,4(v1)
bfc086ac:	e4e80000 	swc1	$f8,0(a3)
bfc086b0:	e4e90004 	swc1	$f9,4(a3)
bfc086b4:	24080018 	li	t0,24
bfc086b8:	00a84821 	addu	t1,a1,t0
bfc086bc:	c52a0000 	lwc1	$f10,0(t1)
bfc086c0:	c52b0004 	lwc1	$f11,4(t1)
bfc086c4:	27aa0130 	addiu	t2,sp,304
bfc086c8:	c5500000 	lwc1	$f16,0(t2)
bfc086cc:	c5510004 	lwc1	$f17,4(t2)
bfc086d0:	00005821 	move	t3,zero
bfc086d4:	00ab5821 	addu	t3,a1,t3
bfc086d8:	c5720000 	lwc1	$f18,0(t3)
bfc086dc:	c5730004 	lwc1	$f19,4(t3)
bfc086e0:	46328301 	sub.d	$f12,$f16,$f18
bfc086e4:	462a6383 	div.d	$f14,$f12,$f10
bfc086e8:	24010000 	li	at,0
bfc086ec:	44810800 	mtc1	at,$f1
bfc086f0:	44800000 	mtc1	zero,$f0
bfc086f4:	240d0001 	li	t5,1
bfc086f8:	462e003e 	c.le.d	$f0,$f14
bfc086fc:	45010002 	bc1t	bfc08708 <ic_test+0xcc>
bfc08700:	00000000 	nop
bfc08704:	00006821 	move	t5,zero
bfc08708:	15a00003 	bnez	t5,bfc08718 <ic_test+0xdc>
bfc0870c:	00000000 	nop
bfc08710:	0bf021ce 	j	bfc08738 <ic_test+0xfc>
bfc08714:	00000000 	nop
bfc08718:	3c013ff0 	lui	at,0x3ff0
bfc0871c:	44811800 	mtc1	at,$f3
bfc08720:	44801000 	mtc1	zero,$f2
bfc08724:	240d0001 	li	t5,1
bfc08728:	4622703c 	c.lt.d	$f14,$f2
bfc0872c:	45010002 	bc1t	bfc08738 <ic_test+0xfc>
bfc08730:	00000000 	nop
bfc08734:	00006821 	move	t5,zero
bfc08738:	00006021 	move	t4,zero
bfc0873c:	01ac6826 	xor	t5,t5,t4
bfc08740:	2dad0001 	sltiu	t5,t5,1
bfc08744:	11a00002 	beqz	t5,bfc08750 <ic_test+0x114>
bfc08748:	00000000 	nop
bfc0874c:	00001021 	move	v0,zero
bfc08750:	27ae0138 	addiu	t6,sp,312
bfc08754:	c5c40000 	lwc1	$f4,0(t6)
bfc08758:	c5c50004 	lwc1	$f5,4(t6)
bfc0875c:	240f0008 	li	t7,8
bfc08760:	00afc021 	addu	t8,a1,t7
bfc08764:	c7060000 	lwc1	$f6,0(t8)
bfc08768:	c7070004 	lwc1	$f7,4(t8)
bfc0876c:	46262201 	sub.d	$f8,$f4,$f6
bfc08770:	462a4383 	div.d	$f14,$f8,$f10
bfc08774:	24010000 	li	at,0
bfc08778:	44818800 	mtc1	at,$f17
bfc0877c:	44808000 	mtc1	zero,$f16
bfc08780:	240e0001 	li	t6,1
bfc08784:	462e803e 	c.le.d	$f16,$f14
bfc08788:	45010002 	bc1t	bfc08794 <ic_test+0x158>
bfc0878c:	00000000 	nop
bfc08790:	00007021 	move	t6,zero
bfc08794:	15c00003 	bnez	t6,bfc087a4 <ic_test+0x168>
bfc08798:	00000000 	nop
bfc0879c:	0bf021f1 	j	bfc087c4 <ic_test+0x188>
bfc087a0:	00000000 	nop
bfc087a4:	3c013ff0 	lui	at,0x3ff0
bfc087a8:	44818800 	mtc1	at,$f17
bfc087ac:	44808000 	mtc1	zero,$f16
bfc087b0:	240e0001 	li	t6,1
bfc087b4:	4630703c 	c.lt.d	$f14,$f16
bfc087b8:	45010002 	bc1t	bfc087c4 <ic_test+0x188>
bfc087bc:	00000000 	nop
bfc087c0:	00007021 	move	t6,zero
bfc087c4:	0000c821 	move	t9,zero
bfc087c8:	01d92026 	xor	a0,t6,t9
bfc087cc:	2c840001 	sltiu	a0,a0,1
bfc087d0:	10800002 	beqz	a0,bfc087dc <ic_test+0x1a0>
bfc087d4:	00000000 	nop
bfc087d8:	00001021 	move	v0,zero
bfc087dc:	27a60140 	addiu	a2,sp,320
bfc087e0:	c4d20000 	lwc1	$f18,0(a2)
bfc087e4:	c4d30004 	lwc1	$f19,4(a2)
bfc087e8:	24060010 	li	a2,16
bfc087ec:	00a63821 	addu	a3,a1,a2
bfc087f0:	c4ec0000 	lwc1	$f12,0(a3)
bfc087f4:	c4ed0004 	lwc1	$f13,4(a3)
bfc087f8:	462c9381 	sub.d	$f14,$f18,$f12
bfc087fc:	462a7383 	div.d	$f14,$f14,$f10
bfc08800:	24010000 	li	at,0
bfc08804:	44810800 	mtc1	at,$f1
bfc08808:	44800000 	mtc1	zero,$f0
bfc0880c:	240f0001 	li	t7,1
bfc08810:	462e003e 	c.le.d	$f0,$f14
bfc08814:	45010002 	bc1t	bfc08820 <ic_test+0x1e4>
bfc08818:	00000000 	nop
bfc0881c:	00007821 	move	t7,zero
bfc08820:	15e00003 	bnez	t7,bfc08830 <ic_test+0x1f4>
bfc08824:	00000000 	nop
bfc08828:	0bf02214 	j	bfc08850 <ic_test+0x214>
bfc0882c:	00000000 	nop
bfc08830:	3c013ff0 	lui	at,0x3ff0
bfc08834:	44811800 	mtc1	at,$f3
bfc08838:	44801000 	mtc1	zero,$f2
bfc0883c:	240f0001 	li	t7,1
bfc08840:	4622703c 	c.lt.d	$f14,$f2
bfc08844:	45010002 	bc1t	bfc08850 <ic_test+0x214>
bfc08848:	00000000 	nop
bfc0884c:	00007821 	move	t7,zero
bfc08850:	00001821 	move	v1,zero
bfc08854:	01e31826 	xor	v1,t7,v1
bfc08858:	2c630001 	sltiu	v1,v1,1
bfc0885c:	10600002 	beqz	v1,bfc08868 <ic_test+0x22c>
bfc08860:	00000000 	nop
bfc08864:	00001021 	move	v0,zero
bfc08868:	8fbd0000 	lw	sp,0(sp)
bfc0886c:	03e00008 	jr	ra
bfc08870:	00000000 	nop

bfc08874 <subindex>:
bfc08874:	b3f02229 	spawn	bfc088a4 <subindex+0x30>
bfc08878:	27bdfd58 	addiu	sp,sp,-680
bfc0887c:	0000003f 	ust
bfc08880:	afbf0004 	sw	ra,4(sp)
bfc08884:	afb00008 	sw	s0,8(sp)
bfc08888:	afb1000c 	sw	s1,12(sp)
bfc0888c:	e7b40010 	swc1	$f20,16(sp)
bfc08890:	e7b50014 	swc1	$f21,20(sp)
bfc08894:	e7b60018 	swc1	$f22,24(sp)
bfc08898:	e7b7001c 	swc1	$f23,28(sp)
bfc0889c:	afbe0000 	sw	s8,0(sp)
bfc088a0:	4bf02229 	cqip	bfc088a4 <subindex+0x30>
bfc088a4:	53f02229 	pslice_entry	bfc088a4 <subindex+0x30>
bfc088a8:	27bdfd58 	addiu	sp,sp,-680
bfc088ac:	57f02229 	pslice_exit	bfc088a4 <subindex+0x30>
bfc088b0:	b3f0231a 	spawn	bfc08c68 <subindex+0x3f4>
bfc088b4:	00a08821 	move	s1,a1
bfc088b8:	00c08021 	move	s0,a2
bfc088bc:	27b80258 	addiu	t8,sp,600
bfc088c0:	24190010 	li	t9,16
bfc088c4:	00994821 	addu	t1,a0,t9
bfc088c8:	c52c0000 	lwc1	$f12,0(t1)
bfc088cc:	c52d0004 	lwc1	$f13,4(t1)
bfc088d0:	e70c0000 	swc1	$f12,0(t8)
bfc088d4:	e70d0004 	swc1	$f13,4(t8)
bfc088d8:	27a50260 	addiu	a1,sp,608
bfc088dc:	24060018 	li	a2,24
bfc088e0:	00863021 	addu	a2,a0,a2
bfc088e4:	c4ce0000 	lwc1	$f14,0(a2)
bfc088e8:	c4cf0004 	lwc1	$f15,4(a2)
bfc088ec:	e4ae0000 	swc1	$f14,0(a1)
bfc088f0:	e4af0004 	swc1	$f15,4(a1)
bfc088f4:	27a70268 	addiu	a3,sp,616
bfc088f8:	24020020 	li	v0,32
bfc088fc:	00821821 	addu	v1,a0,v0
bfc08900:	c4600000 	lwc1	$f0,0(v1)
bfc08904:	c4610004 	lwc1	$f1,4(v1)
bfc08908:	e4e00000 	swc1	$f0,0(a3)
bfc0890c:	e4e10004 	swc1	$f1,4(a3)
bfc08910:	24080018 	li	t0,24
bfc08914:	02284821 	addu	t1,s1,t0
bfc08918:	c5340000 	lwc1	$f20,0(t1)
bfc0891c:	c5350004 	lwc1	$f21,4(t1)
bfc08920:	27aa0258 	addiu	t2,sp,600
bfc08924:	c5420000 	lwc1	$f2,0(t2)
bfc08928:	c5430004 	lwc1	$f3,4(t2)
bfc0892c:	00005821 	move	t3,zero
bfc08930:	022b4021 	addu	t0,s1,t3
bfc08934:	c5040000 	lwc1	$f4,0(t0)
bfc08938:	c5050004 	lwc1	$f5,4(t0)
bfc0893c:	46241181 	sub.d	$f6,$f2,$f4
bfc08940:	46343583 	div.d	$f22,$f6,$f20
bfc08944:	24010000 	li	at,0
bfc08948:	44814800 	mtc1	at,$f9
bfc0894c:	44804000 	mtc1	zero,$f8
bfc08950:	240a0001 	li	t2,1
bfc08954:	4636403e 	c.le.d	$f8,$f22
bfc08958:	45010002 	bc1t	bfc08964 <subindex+0xf0>
bfc0895c:	00000000 	nop
bfc08960:	00005021 	move	t2,zero
bfc08964:	15400003 	bnez	t2,bfc08974 <subindex+0x100>
bfc08968:	00000000 	nop
bfc0896c:	0bf02265 	j	bfc08994 <subindex+0x120>
bfc08970:	00000000 	nop
bfc08974:	3c013ff0 	lui	at,0x3ff0
bfc08978:	44815800 	mtc1	at,$f11
bfc0897c:	44805000 	mtc1	zero,$f10
bfc08980:	240a0001 	li	t2,1
bfc08984:	462ab03c 	c.lt.d	$f22,$f10
bfc08988:	45010002 	bc1t	bfc08994 <subindex+0x120>
bfc0898c:	00000000 	nop
bfc08990:	00005021 	move	t2,zero
bfc08994:	00006021 	move	t4,zero
bfc08998:	014c6826 	xor	t5,t2,t4
bfc0899c:	2dad0001 	sltiu	t5,t5,1
bfc089a0:	11a00010 	beqz	t5,bfc089e4 <subindex+0x170>
bfc089a4:	00000000 	nop
bfc089a8:	3c08bfc0 	lui	t0,0xbfc0
bfc089ac:	250803fc 	addiu	t0,t0,1020
bfc089b0:	27840527 	addiu	a0,gp,1319
bfc089b4:	24050005 	li	a1,5
bfc089b8:	03a0f021 	move	s8,sp
bfc089bc:	03a0003e 	fst	sp
bfc089c0:	03e04009 	jalr	t0,ra
bfc089c4:	00000000 	nop
bfc089c8:	3c08bfc0 	lui	t0,0xbfc0
bfc089cc:	2508045c 	addiu	t0,t0,1116
bfc089d0:	00002021 	move	a0,zero
bfc089d4:	03a0f021 	move	s8,sp
bfc089d8:	03a0003e 	fst	sp
bfc089dc:	03e04009 	jalr	t0,ra
bfc089e0:	00000000 	nop
bfc089e4:	27ae0274 	addiu	t6,sp,628
bfc089e8:	3c0141d0 	lui	at,0x41d0
bfc089ec:	44818800 	mtc1	at,$f17
bfc089f0:	44808000 	mtc1	zero,$f16
bfc089f4:	46368482 	mul.d	$f18,$f16,$f22
bfc089f8:	46209324 	cvt.w.d	$f12,$f18
bfc089fc:	440f6000 	mfc1	t7,$f12
bfc08a00:	448f7000 	mtc1	t7,$f14
bfc08a04:	46807021 	cvt.d.w	$f0,$f14
bfc08a08:	462000a4 	cvt.w.d	$f2,$f0
bfc08a0c:	44181000 	mfc1	t8,$f2
bfc08a10:	add80000 	sw	t8,0(t6)
bfc08a14:	27b90260 	addiu	t9,sp,608
bfc08a18:	c7240000 	lwc1	$f4,0(t9)
bfc08a1c:	c7250004 	lwc1	$f5,4(t9)
bfc08a20:	24040008 	li	a0,8
bfc08a24:	02242821 	addu	a1,s1,a0
bfc08a28:	c4a60000 	lwc1	$f6,0(a1)
bfc08a2c:	c4a70004 	lwc1	$f7,4(a1)
bfc08a30:	46262201 	sub.d	$f8,$f4,$f6
bfc08a34:	46344583 	div.d	$f22,$f8,$f20
bfc08a38:	24010000 	li	at,0
bfc08a3c:	44815800 	mtc1	at,$f11
bfc08a40:	44805000 	mtc1	zero,$f10
bfc08a44:	240b0001 	li	t3,1
bfc08a48:	4636503e 	c.le.d	$f10,$f22
bfc08a4c:	45010002 	bc1t	bfc08a58 <subindex+0x1e4>
bfc08a50:	00000000 	nop
bfc08a54:	00005821 	move	t3,zero
bfc08a58:	15600003 	bnez	t3,bfc08a68 <subindex+0x1f4>
bfc08a5c:	00000000 	nop
bfc08a60:	0bf022a2 	j	bfc08a88 <subindex+0x214>
bfc08a64:	00000000 	nop
bfc08a68:	3c013ff0 	lui	at,0x3ff0
bfc08a6c:	44818800 	mtc1	at,$f17
bfc08a70:	44808000 	mtc1	zero,$f16
bfc08a74:	240b0001 	li	t3,1
bfc08a78:	4630b03c 	c.lt.d	$f22,$f16
bfc08a7c:	45010002 	bc1t	bfc08a88 <subindex+0x214>
bfc08a80:	00000000 	nop
bfc08a84:	00005821 	move	t3,zero
bfc08a88:	00003021 	move	a2,zero
bfc08a8c:	01663826 	xor	a3,t3,a2
bfc08a90:	2ce70001 	sltiu	a3,a3,1
bfc08a94:	10e00010 	beqz	a3,bfc08ad8 <subindex+0x264>
bfc08a98:	00000000 	nop
bfc08a9c:	3c08bfc0 	lui	t0,0xbfc0
bfc08aa0:	250803fc 	addiu	t0,t0,1020
bfc08aa4:	27840527 	addiu	a0,gp,1319
bfc08aa8:	24050006 	li	a1,6
bfc08aac:	03a0f021 	move	s8,sp
bfc08ab0:	03a0003e 	fst	sp
bfc08ab4:	03e04009 	jalr	t0,ra
bfc08ab8:	00000000 	nop
bfc08abc:	3c08bfc0 	lui	t0,0xbfc0
bfc08ac0:	2508045c 	addiu	t0,t0,1116
bfc08ac4:	00002021 	move	a0,zero
bfc08ac8:	03a0f021 	move	s8,sp
bfc08acc:	03a0003e 	fst	sp
bfc08ad0:	03e04009 	jalr	t0,ra
bfc08ad4:	00000000 	nop
bfc08ad8:	27a20278 	addiu	v0,sp,632
bfc08adc:	3c0141d0 	lui	at,0x41d0
bfc08ae0:	44819800 	mtc1	at,$f19
bfc08ae4:	44809000 	mtc1	zero,$f18
bfc08ae8:	46369302 	mul.d	$f12,$f18,$f22
bfc08aec:	462063a4 	cvt.w.d	$f14,$f12
bfc08af0:	44037000 	mfc1	v1,$f14
bfc08af4:	44830000 	mtc1	v1,$f0
bfc08af8:	468000a1 	cvt.d.w	$f2,$f0
bfc08afc:	46201124 	cvt.w.d	$f4,$f2
bfc08b00:	44082000 	mfc1	t0,$f4
bfc08b04:	ac480000 	sw	t0,0(v0)
bfc08b08:	27a90268 	addiu	t1,sp,616
bfc08b0c:	c5260000 	lwc1	$f6,0(t1)
bfc08b10:	c5270004 	lwc1	$f7,4(t1)
bfc08b14:	240a0010 	li	t2,16
bfc08b18:	022a5821 	addu	t3,s1,t2
bfc08b1c:	c5680000 	lwc1	$f8,0(t3)
bfc08b20:	c5690004 	lwc1	$f9,4(t3)
bfc08b24:	46283281 	sub.d	$f10,$f6,$f8
bfc08b28:	46345583 	div.d	$f22,$f10,$f20
bfc08b2c:	24010000 	li	at,0
bfc08b30:	44818800 	mtc1	at,$f17
bfc08b34:	44808000 	mtc1	zero,$f16
bfc08b38:	240c0001 	li	t4,1
bfc08b3c:	4636803e 	c.le.d	$f16,$f22
bfc08b40:	45010002 	bc1t	bfc08b4c <subindex+0x2d8>
bfc08b44:	00000000 	nop
bfc08b48:	00006021 	move	t4,zero
bfc08b4c:	15800003 	bnez	t4,bfc08b5c <subindex+0x2e8>
bfc08b50:	00000000 	nop
bfc08b54:	0bf022df 	j	bfc08b7c <subindex+0x308>
bfc08b58:	00000000 	nop
bfc08b5c:	3c013ff0 	lui	at,0x3ff0
bfc08b60:	44819800 	mtc1	at,$f19
bfc08b64:	44809000 	mtc1	zero,$f18
bfc08b68:	240c0001 	li	t4,1
bfc08b6c:	4632b03c 	c.lt.d	$f22,$f18
bfc08b70:	45010002 	bc1t	bfc08b7c <subindex+0x308>
bfc08b74:	00000000 	nop
bfc08b78:	00006021 	move	t4,zero
bfc08b7c:	00006821 	move	t5,zero
bfc08b80:	018d6826 	xor	t5,t4,t5
bfc08b84:	2dad0001 	sltiu	t5,t5,1
bfc08b88:	11a00010 	beqz	t5,bfc08bcc <subindex+0x358>
bfc08b8c:	00000000 	nop
bfc08b90:	3c08bfc0 	lui	t0,0xbfc0
bfc08b94:	250803fc 	addiu	t0,t0,1020
bfc08b98:	27840527 	addiu	a0,gp,1319
bfc08b9c:	24050007 	li	a1,7
bfc08ba0:	03a0f021 	move	s8,sp
bfc08ba4:	03a0003e 	fst	sp
bfc08ba8:	03e04009 	jalr	t0,ra
bfc08bac:	00000000 	nop
bfc08bb0:	3c08bfc0 	lui	t0,0xbfc0
bfc08bb4:	2508045c 	addiu	t0,t0,1116
bfc08bb8:	00002021 	move	a0,zero
bfc08bbc:	03a0f021 	move	s8,sp
bfc08bc0:	03a0003e 	fst	sp
bfc08bc4:	03e04009 	jalr	t0,ra
bfc08bc8:	00000000 	nop
bfc08bcc:	27ae027c 	addiu	t6,sp,636
bfc08bd0:	3c0141d0 	lui	at,0x41d0
bfc08bd4:	44816800 	mtc1	at,$f13
bfc08bd8:	44806000 	mtc1	zero,$f12
bfc08bdc:	46366382 	mul.d	$f14,$f12,$f22
bfc08be0:	46207024 	cvt.w.d	$f0,$f14
bfc08be4:	440f0000 	mfc1	t7,$f0
bfc08be8:	448f1000 	mtc1	t7,$f2
bfc08bec:	46801121 	cvt.d.w	$f4,$f2
bfc08bf0:	462021a4 	cvt.w.d	$f6,$f4
bfc08bf4:	44183000 	mfc1	t8,$f6
bfc08bf8:	add80000 	sw	t8,0(t6)
bfc08bfc:	00001021 	move	v0,zero
bfc08c00:	0000c821 	move	t9,zero
bfc08c04:	27a40274 	addiu	a0,sp,628
bfc08c08:	24050004 	li	a1,4
bfc08c0c:	03250018 	mult	t9,a1
bfc08c10:	00003012 	mflo	a2
bfc08c14:	00863821 	addu	a3,a0,a2
bfc08c18:	8cee0000 	lw	t6,0(a3)
bfc08c1c:	01d06824 	and	t5,t6,s0
bfc08c20:	00001821 	move	v1,zero
bfc08c24:	01a31826 	xor	v1,t5,v1
bfc08c28:	0003182b 	sltu	v1,zero,v1
bfc08c2c:	10600006 	beqz	v1,bfc08c48 <subindex+0x3d4>
bfc08c30:	00000000 	nop
bfc08c34:	24080008 	li	t0,8
bfc08c38:	24090001 	li	t1,1
bfc08c3c:	03297821 	addu	t7,t9,t1
bfc08c40:	01e85007 	srav	t2,t0,t7
bfc08c44:	004a1021 	addu	v0,v0,t2
bfc08c48:	240b0001 	li	t3,1
bfc08c4c:	032bc821 	addu	t9,t9,t3
bfc08c50:	240c0003 	li	t4,3
bfc08c54:	032c682a 	slt	t5,t9,t4
bfc08c58:	39ad0001 	xori	t5,t5,0x1
bfc08c5c:	11a0ffe9 	beqz	t5,bfc08c04 <subindex+0x390>
bfc08c60:	00000000 	nop
bfc08c64:	4bf0231a 	cqip	bfc08c68 <subindex+0x3f4>
bfc08c68:	53f0231a 	pslice_entry	bfc08c68 <subindex+0x3f4>
bfc08c6c:	57f0231a 	pslice_exit	bfc08c68 <subindex+0x3f4>
bfc08c70:	8fbf0004 	lw	ra,4(sp)
bfc08c74:	8fb00008 	lw	s0,8(sp)
bfc08c78:	8fb1000c 	lw	s1,12(sp)
bfc08c7c:	c7b40010 	lwc1	$f20,16(sp)
bfc08c80:	c7b50014 	lwc1	$f21,20(sp)
bfc08c84:	c7b60018 	lwc1	$f22,24(sp)
bfc08c88:	c7b7001c 	lwc1	$f23,28(sp)
bfc08c8c:	8fbd0000 	lw	sp,0(sp)
bfc08c90:	03e00008 	jr	ra
bfc08c94:	00000000 	nop

bfc08c98 <hackcofm>:
bfc08c98:	b3f02331 	spawn	bfc08cc4 <hackcofm+0x2c>
bfc08c9c:	27bdfdb0 	addiu	sp,sp,-592
bfc08ca0:	0000003f 	ust
bfc08ca4:	afbf0004 	sw	ra,4(sp)
bfc08ca8:	afb00008 	sw	s0,8(sp)
bfc08cac:	afb1000c 	sw	s1,12(sp)
bfc08cb0:	afb20010 	sw	s2,16(sp)
bfc08cb4:	e7b40018 	swc1	$f20,24(sp)
bfc08cb8:	e7b5001c 	swc1	$f21,28(sp)
bfc08cbc:	afbe0000 	sw	s8,0(sp)
bfc08cc0:	4bf02331 	cqip	bfc08cc4 <hackcofm+0x2c>
bfc08cc4:	53f02331 	pslice_entry	bfc08cc4 <hackcofm+0x2c>
bfc08cc8:	27bdfdb0 	addiu	sp,sp,-592
bfc08ccc:	57f02331 	pslice_exit	bfc08cc4 <hackcofm+0x2c>
bfc08cd0:	b3f023de 	spawn	bfc08f78 <hackcofm+0x2e0>
bfc08cd4:	b3f023ef 	spawn	bfc08fbc <hackcofm+0x324>
bfc08cd8:	00808021 	move	s0,a0
bfc08cdc:	0000c021 	move	t8,zero
bfc08ce0:	0218c821 	addu	t9,s0,t8
bfc08ce4:	872a0000 	lh	t2,0(t9)
bfc08ce8:	24040002 	li	a0,2
bfc08cec:	01442826 	xor	a1,t2,a0
bfc08cf0:	2ca50001 	sltiu	a1,a1,1
bfc08cf4:	10a000ab 	beqz	a1,bfc08fa4 <hackcofm+0x30c>
bfc08cf8:	00000000 	nop
bfc08cfc:	24010000 	li	at,0
bfc08d00:	4481a800 	mtc1	at,$f21
bfc08d04:	4480a000 	mtc1	zero,$f20
bfc08d08:	00003021 	move	a2,zero
bfc08d0c:	27a70210 	addiu	a3,sp,528
bfc08d10:	24020008 	li	v0,8
bfc08d14:	00c20018 	mult	a2,v0
bfc08d18:	00001812 	mflo	v1
bfc08d1c:	00e34021 	addu	t0,a3,v1
bfc08d20:	24010000 	li	at,0
bfc08d24:	44815800 	mtc1	at,$f11
bfc08d28:	44805000 	mtc1	zero,$f10
bfc08d2c:	e50a0000 	swc1	$f10,0(t0)
bfc08d30:	e50b0004 	swc1	$f11,4(t0)
bfc08d34:	24090001 	li	t1,1
bfc08d38:	00c93021 	addu	a2,a2,t1
bfc08d3c:	240a0003 	li	t2,3
bfc08d40:	00ca582a 	slt	t3,a2,t2
bfc08d44:	396b0001 	xori	t3,t3,0x1
bfc08d48:	1160fff0 	beqz	t3,bfc08d0c <hackcofm+0x74>
bfc08d4c:	00000000 	nop
bfc08d50:	00009021 	move	s2,zero
bfc08d54:	240c0030 	li	t4,48
bfc08d58:	020c5821 	addu	t3,s0,t4
bfc08d5c:	240d0004 	li	t5,4
bfc08d60:	024d0018 	mult	s2,t5
bfc08d64:	00007012 	mflo	t6
bfc08d68:	016e7821 	addu	t7,t3,t6
bfc08d6c:	8df10000 	lw	s1,0(t7)
bfc08d70:	24180000 	li	t8,0
bfc08d74:	0238c826 	xor	t9,s1,t8
bfc08d78:	0019c82b 	sltu	t9,zero,t9
bfc08d7c:	1320003f 	beqz	t9,bfc08e7c <hackcofm+0x1e4>
bfc08d80:	00000000 	nop
bfc08d84:	3c08bfc1 	lui	t0,0xbfc1
bfc08d88:	25088c98 	addiu	t0,t0,-29544
bfc08d8c:	02202021 	move	a0,s1
bfc08d90:	03a0f021 	move	s8,sp
bfc08d94:	03a0003e 	fst	sp
bfc08d98:	03e04009 	jalr	t0,ra
bfc08d9c:	00000000 	nop
bfc08da0:	46340500 	add.d	$f20,$f0,$f20
bfc08da4:	00002021 	move	a0,zero
bfc08da8:	27a50228 	addiu	a1,sp,552
bfc08dac:	24060008 	li	a2,8
bfc08db0:	00860018 	mult	a0,a2
bfc08db4:	00003812 	mflo	a3
bfc08db8:	00a71021 	addu	v0,a1,a3
bfc08dbc:	24030010 	li	v1,16
bfc08dc0:	02236021 	addu	t4,s1,v1
bfc08dc4:	24080008 	li	t0,8
bfc08dc8:	00880018 	mult	a0,t0
bfc08dcc:	00004812 	mflo	t1
bfc08dd0:	01895021 	addu	t2,t4,t1
bfc08dd4:	c5500000 	lwc1	$f16,0(t2)
bfc08dd8:	c5510004 	lwc1	$f17,4(t2)
bfc08ddc:	46208482 	mul.d	$f18,$f16,$f0
bfc08de0:	e4520000 	swc1	$f18,0(v0)
bfc08de4:	e4530004 	swc1	$f19,4(v0)
bfc08de8:	240b0001 	li	t3,1
bfc08dec:	008b2021 	addu	a0,a0,t3
bfc08df0:	240c0003 	li	t4,3
bfc08df4:	008c682a 	slt	t5,a0,t4
bfc08df8:	39ad0001 	xori	t5,t5,0x1
bfc08dfc:	11a0ffea 	beqz	t5,bfc08da8 <hackcofm+0x110>
bfc08e00:	00000000 	nop
bfc08e04:	00007021 	move	t6,zero
bfc08e08:	27af0210 	addiu	t7,sp,528
bfc08e0c:	24180008 	li	t8,8
bfc08e10:	01d80018 	mult	t6,t8
bfc08e14:	0000c812 	mflo	t9
bfc08e18:	01f92021 	addu	a0,t7,t9
bfc08e1c:	27a50210 	addiu	a1,sp,528
bfc08e20:	24060008 	li	a2,8
bfc08e24:	01c60018 	mult	t6,a2
bfc08e28:	00003812 	mflo	a3
bfc08e2c:	00a71021 	addu	v0,a1,a3
bfc08e30:	c44c0000 	lwc1	$f12,0(v0)
bfc08e34:	c44d0004 	lwc1	$f13,4(v0)
bfc08e38:	27a30228 	addiu	v1,sp,552
bfc08e3c:	24080008 	li	t0,8
bfc08e40:	01c80018 	mult	t6,t0
bfc08e44:	00004812 	mflo	t1
bfc08e48:	00695021 	addu	t2,v1,t1
bfc08e4c:	c54e0000 	lwc1	$f14,0(t2)
bfc08e50:	c54f0004 	lwc1	$f15,4(t2)
bfc08e54:	462e6000 	add.d	$f0,$f12,$f14
bfc08e58:	e4800000 	swc1	$f0,0(a0)
bfc08e5c:	e4810004 	swc1	$f1,4(a0)
bfc08e60:	240b0001 	li	t3,1
bfc08e64:	01cb7021 	addu	t6,t6,t3
bfc08e68:	240c0003 	li	t4,3
bfc08e6c:	01cc682a 	slt	t5,t6,t4
bfc08e70:	39ad0001 	xori	t5,t5,0x1
bfc08e74:	11a0ffe4 	beqz	t5,bfc08e08 <hackcofm+0x170>
bfc08e78:	00000000 	nop
bfc08e7c:	240e0001 	li	t6,1
bfc08e80:	024e9021 	addu	s2,s2,t6
bfc08e84:	240f0008 	li	t7,8
bfc08e88:	024fc02a 	slt	t8,s2,t7
bfc08e8c:	3b180001 	xori	t8,t8,0x1
bfc08e90:	1300ffb0 	beqz	t8,bfc08d54 <hackcofm+0xbc>
bfc08e94:	00000000 	nop
bfc08e98:	24190008 	li	t9,8
bfc08e9c:	02192021 	addu	a0,s0,t9
bfc08ea0:	e4940000 	swc1	$f20,0(a0)
bfc08ea4:	e4950004 	swc1	$f21,4(a0)
bfc08ea8:	24050010 	li	a1,16
bfc08eac:	02056821 	addu	t5,s0,a1
bfc08eb0:	27a60210 	addiu	a2,sp,528
bfc08eb4:	c4c20000 	lwc1	$f2,0(a2)
bfc08eb8:	c4c30004 	lwc1	$f3,4(a2)
bfc08ebc:	e5a20000 	swc1	$f2,0(t5)
bfc08ec0:	e5a30004 	swc1	$f3,4(t5)
bfc08ec4:	24070018 	li	a3,24
bfc08ec8:	02071021 	addu	v0,s0,a3
bfc08ecc:	27a30218 	addiu	v1,sp,536
bfc08ed0:	c4640000 	lwc1	$f4,0(v1)
bfc08ed4:	c4650004 	lwc1	$f5,4(v1)
bfc08ed8:	e4440000 	swc1	$f4,0(v0)
bfc08edc:	e4450004 	swc1	$f5,4(v0)
bfc08ee0:	24080020 	li	t0,32
bfc08ee4:	02084821 	addu	t1,s0,t0
bfc08ee8:	27aa0220 	addiu	t2,sp,544
bfc08eec:	c5460000 	lwc1	$f6,0(t2)
bfc08ef0:	c5470004 	lwc1	$f7,4(t2)
bfc08ef4:	e5260000 	swc1	$f6,0(t1)
bfc08ef8:	e5270004 	swc1	$f7,4(t1)
bfc08efc:	00005821 	move	t3,zero
bfc08f00:	240c0010 	li	t4,16
bfc08f04:	020c7821 	addu	t7,s0,t4
bfc08f08:	240d0008 	li	t5,8
bfc08f0c:	016d0018 	mult	t3,t5
bfc08f10:	00007012 	mflo	t6
bfc08f14:	01ee7821 	addu	t7,t7,t6
bfc08f18:	24180010 	li	t8,16
bfc08f1c:	02187021 	addu	t6,s0,t8
bfc08f20:	24190008 	li	t9,8
bfc08f24:	01790018 	mult	t3,t9
bfc08f28:	00002012 	mflo	a0
bfc08f2c:	01c42821 	addu	a1,t6,a0
bfc08f30:	c4a80000 	lwc1	$f8,0(a1)
bfc08f34:	c4a90004 	lwc1	$f9,4(a1)
bfc08f38:	24060008 	li	a2,8
bfc08f3c:	02063821 	addu	a3,s0,a2
bfc08f40:	c4ea0000 	lwc1	$f10,0(a3)
bfc08f44:	c4eb0004 	lwc1	$f11,4(a3)
bfc08f48:	462a4403 	div.d	$f16,$f8,$f10
bfc08f4c:	e5f00000 	swc1	$f16,0(t7)
bfc08f50:	e5f10004 	swc1	$f17,4(t7)
bfc08f54:	24020001 	li	v0,1
bfc08f58:	01625821 	addu	t3,t3,v0
bfc08f5c:	24030003 	li	v1,3
bfc08f60:	0163402a 	slt	t0,t3,v1
bfc08f64:	39080001 	xori	t0,t0,0x1
bfc08f68:	1100ffe5 	beqz	t0,bfc08f00 <hackcofm+0x268>
bfc08f6c:	00000000 	nop
bfc08f70:	4620a006 	mov.d	$f0,$f20
bfc08f74:	4bf023de 	cqip	bfc08f78 <hackcofm+0x2e0>
bfc08f78:	53f023de 	pslice_entry	bfc08f78 <hackcofm+0x2e0>
bfc08f7c:	57f023de 	pslice_exit	bfc08f78 <hackcofm+0x2e0>
bfc08f80:	8fbf0004 	lw	ra,4(sp)
bfc08f84:	8fb00008 	lw	s0,8(sp)
bfc08f88:	8fb1000c 	lw	s1,12(sp)
bfc08f8c:	8fb20010 	lw	s2,16(sp)
bfc08f90:	c7b40018 	lwc1	$f20,24(sp)
bfc08f94:	c7b5001c 	lwc1	$f21,28(sp)
bfc08f98:	8fbd0000 	lw	sp,0(sp)
bfc08f9c:	03e00008 	jr	ra
bfc08fa0:	00000000 	nop
bfc08fa4:	24090008 	li	t1,8
bfc08fa8:	02095021 	addu	t2,s0,t1
bfc08fac:	c5540000 	lwc1	$f20,0(t2)
bfc08fb0:	c5550004 	lwc1	$f21,4(t2)
bfc08fb4:	4620a006 	mov.d	$f0,$f20
bfc08fb8:	4bf023ef 	cqip	bfc08fbc <hackcofm+0x324>
bfc08fbc:	53f023ef 	pslice_entry	bfc08fbc <hackcofm+0x324>
bfc08fc0:	57f023ef 	pslice_exit	bfc08fbc <hackcofm+0x324>
bfc08fc4:	8fbf0004 	lw	ra,4(sp)
bfc08fc8:	8fb00008 	lw	s0,8(sp)
bfc08fcc:	8fb1000c 	lw	s1,12(sp)
bfc08fd0:	8fb20010 	lw	s2,16(sp)
bfc08fd4:	c7b40018 	lwc1	$f20,24(sp)
bfc08fd8:	c7b5001c 	lwc1	$f21,28(sp)
bfc08fdc:	8fbd0000 	lw	sp,0(sp)
bfc08fe0:	03e00008 	jr	ra
bfc08fe4:	00000000 	nop

bfc08fe8 <dis2_number>:
bfc08fe8:	b3f02403 	spawn	bfc0900c <dis2_number+0x24>
bfc08fec:	27bdff68 	addiu	sp,sp,-152
bfc08ff0:	0000003f 	ust
bfc08ff4:	afbf0004 	sw	ra,4(sp)
bfc08ff8:	afb00008 	sw	s0,8(sp)
bfc08ffc:	afb1000c 	sw	s1,12(sp)
bfc09000:	afb20010 	sw	s2,16(sp)
bfc09004:	afbe0000 	sw	s8,0(sp)
bfc09008:	4bf02403 	cqip	bfc0900c <dis2_number+0x24>
bfc0900c:	53f02403 	pslice_entry	bfc0900c <dis2_number+0x24>
bfc09010:	27bdff68 	addiu	sp,sp,-152
bfc09014:	57f02403 	pslice_exit	bfc0900c <dis2_number+0x24>
bfc09018:	00808821 	move	s1,a0
bfc0901c:	00a01021 	move	v0,a1
bfc09020:	00c08021 	move	s0,a2
bfc09024:	240f0000 	li	t7,0
bfc09028:	022fc026 	xor	t8,s1,t7
bfc0902c:	2f180001 	sltiu	t8,t8,1
bfc09030:	13000008 	beqz	t8,bfc09054 <dis2_number+0x6c>
bfc09034:	00000000 	nop
bfc09038:	8fbf0004 	lw	ra,4(sp)
bfc0903c:	8fb00008 	lw	s0,8(sp)
bfc09040:	8fb1000c 	lw	s1,12(sp)
bfc09044:	8fb20010 	lw	s2,16(sp)
bfc09048:	8fbd0000 	lw	sp,0(sp)
bfc0904c:	03e00008 	jr	ra
bfc09050:	00000000 	nop
bfc09054:	0000c821 	move	t9,zero
bfc09058:	02392021 	addu	a0,s1,t9
bfc0905c:	848d0000 	lh	t5,0(a0)
bfc09060:	24050001 	li	a1,1
bfc09064:	01a53026 	xor	a2,t5,a1
bfc09068:	2cc60001 	sltiu	a2,a2,1
bfc0906c:	10c00019 	beqz	a2,bfc090d4 <dis2_number+0xec>
bfc09070:	00000000 	nop
bfc09074:	2407002c 	li	a3,44
bfc09078:	02271821 	addu	v1,s1,a3
bfc0907c:	24080001 	li	t0,1
bfc09080:	00484021 	addu	t0,v0,t0
bfc09084:	16000002 	bnez	s0,bfc09090 <dis2_number+0xa8>
bfc09088:	0110001a 	div	zero,t0,s0
bfc0908c:	0007000d 	break	0x7
bfc09090:	2401ffff 	li	at,-1
bfc09094:	16010004 	bne	s0,at,bfc090a8 <dis2_number+0xc0>
bfc09098:	3c018000 	lui	at,0x8000
bfc0909c:	15010002 	bne	t0,at,bfc090a8 <dis2_number+0xc0>
bfc090a0:	00000000 	nop
bfc090a4:	0006000d 	break	0x6
bfc090a8:	00004812 	mflo	t1
bfc090ac:	ac690000 	sw	t1,0(v1)
bfc090b0:	240a0001 	li	t2,1
bfc090b4:	004a1021 	addu	v0,v0,t2
bfc090b8:	8fbf0004 	lw	ra,4(sp)
bfc090bc:	8fb00008 	lw	s0,8(sp)
bfc090c0:	8fb1000c 	lw	s1,12(sp)
bfc090c4:	8fb20010 	lw	s2,16(sp)
bfc090c8:	8fbd0000 	lw	sp,0(sp)
bfc090cc:	03e00008 	jr	ra
bfc090d0:	00000000 	nop
bfc090d4:	00009021 	move	s2,zero
bfc090d8:	240b0030 	li	t3,48
bfc090dc:	022b7021 	addu	t6,s1,t3
bfc090e0:	240c0004 	li	t4,4
bfc090e4:	024c0018 	mult	s2,t4
bfc090e8:	00006812 	mflo	t5
bfc090ec:	01cd7021 	addu	t6,t6,t5
bfc090f0:	8dc40000 	lw	a0,0(t6)
bfc090f4:	3c08bfc1 	lui	t0,0xbfc1
bfc090f8:	25088fe8 	addiu	t0,t0,-28696
bfc090fc:	00402821 	move	a1,v0
bfc09100:	02003021 	move	a2,s0
bfc09104:	03a0f021 	move	s8,sp
bfc09108:	03a0003e 	fst	sp
bfc0910c:	03e04009 	jalr	t0,ra
bfc09110:	00000000 	nop
bfc09114:	240f0001 	li	t7,1
bfc09118:	024f9021 	addu	s2,s2,t7
bfc0911c:	24180008 	li	t8,8
bfc09120:	0258c82a 	slt	t9,s2,t8
bfc09124:	3b390001 	xori	t9,t9,0x1
bfc09128:	1320ffeb 	beqz	t9,bfc090d8 <dis2_number+0xf0>
bfc0912c:	00000000 	nop
bfc09130:	8fbf0004 	lw	ra,4(sp)
bfc09134:	8fb00008 	lw	s0,8(sp)
bfc09138:	8fb1000c 	lw	s1,12(sp)
bfc0913c:	8fb20010 	lw	s2,16(sp)
bfc09140:	8fbd0000 	lw	sp,0(sp)
bfc09144:	03e00008 	jr	ra
bfc09148:	00000000 	nop

bfc0914c <dis_number>:
bfc0914c:	b3f02459 	spawn	bfc09164 <dis_number+0x18>
bfc09150:	27bdffb0 	addiu	sp,sp,-80
bfc09154:	0000003f 	ust
bfc09158:	afbf0004 	sw	ra,4(sp)
bfc0915c:	afbe0000 	sw	s8,0(sp)
bfc09160:	4bf02459 	cqip	bfc09164 <dis_number+0x18>
bfc09164:	53f02459 	pslice_entry	bfc09164 <dis_number+0x18>
bfc09168:	27bdffb0 	addiu	sp,sp,-80
bfc0916c:	57f02459 	pslice_exit	bfc09164 <dis_number+0x18>
bfc09170:	8f85055c 	lw	a1,1372(gp)
bfc09174:	44852000 	mtc1	a1,$f4
bfc09178:	468021a1 	cvt.d.w	$f6,$f4
bfc0917c:	8f850564 	lw	a1,1380(gp)
bfc09180:	44854000 	mtc1	a1,$f8
bfc09184:	468042a1 	cvt.d.w	$f10,$f8
bfc09188:	462a3403 	div.d	$f16,$f6,$f10
bfc0918c:	462084a4 	cvt.w.d	$f18,$f16
bfc09190:	44069000 	mfc1	a2,$f18
bfc09194:	24070001 	li	a3,1
bfc09198:	00c71021 	addu	v0,a2,a3
bfc0919c:	44826000 	mtc1	v0,$f12
bfc091a0:	468063a1 	cvt.d.w	$f14,$f12
bfc091a4:	46207024 	cvt.w.d	$f0,$f14
bfc091a8:	44060000 	mfc1	a2,$f0
bfc091ac:	3c08bfc1 	lui	t0,0xbfc1
bfc091b0:	25088fe8 	addiu	t0,t0,-28696
bfc091b4:	2405ffff 	li	a1,-1
bfc091b8:	03a0f021 	move	s8,sp
bfc091bc:	03a0003e 	fst	sp
bfc091c0:	03e04009 	jalr	t0,ra
bfc091c4:	00000000 	nop
bfc091c8:	8fbf0004 	lw	ra,4(sp)
bfc091cc:	8fbd0000 	lw	sp,0(sp)
bfc091d0:	03e00008 	jr	ra
bfc091d4:	00000000 	nop

bfc091d8 <printtree>:
bfc091d8:	b3f0247c 	spawn	bfc091f0 <printtree+0x18>
bfc091dc:	27bdffe8 	addiu	sp,sp,-24
bfc091e0:	0000003f 	ust
bfc091e4:	afbf0004 	sw	ra,4(sp)
bfc091e8:	afbe0000 	sw	s8,0(sp)
bfc091ec:	4bf0247c 	cqip	bfc091f0 <printtree+0x18>
bfc091f0:	53f0247c 	pslice_entry	bfc091f0 <printtree+0x18>
bfc091f4:	27bdffe8 	addiu	sp,sp,-24
bfc091f8:	57f0247c 	pslice_exit	bfc091f0 <printtree+0x18>
bfc091fc:	3c08bfc0 	lui	t0,0xbfc0
bfc09200:	2508528c 	addiu	t0,t0,21132
bfc09204:	00002821 	move	a1,zero
bfc09208:	03a0f021 	move	s8,sp
bfc0920c:	03a0003e 	fst	sp
bfc09210:	03e04009 	jalr	t0,ra
bfc09214:	00000000 	nop
bfc09218:	8fbf0004 	lw	ra,4(sp)
bfc0921c:	8fbd0000 	lw	sp,0(sp)
bfc09220:	03e00008 	jr	ra
bfc09224:	00000000 	nop
	...

Disassembly of section .data:

a00c0000 <_data>:
	...

a00c0010 <malloc.pos>:
a00c0010:	a0000000 	sb	zero,0(zero)

a00c0014 <two_over_pi>:
a00c0014:	000000a2 	0xa2
a00c0018:	000000f9 	0xf9
a00c001c:	00000083 	sra	zero,zero,0x2
a00c0020:	0000006e 	0x6e
a00c0024:	0000004e 	0x4e
a00c0028:	00000044 	0x44
a00c002c:	00000015 	0x15
a00c0030:	00000029 	0x29
a00c0034:	000000fc 	0xfc
a00c0038:	00000027 	nor	zero,zero,zero
a00c003c:	00000057 	0x57
a00c0040:	000000d1 	0xd1
a00c0044:	000000f5 	0xf5
a00c0048:	00000034 	0x34
a00c004c:	000000dd 	0xdd
a00c0050:	000000c0 	sll	zero,zero,0x3
a00c0054:	000000db 	0xdb
a00c0058:	00000062 	0x62
a00c005c:	00000095 	0x95
a00c0060:	00000099 	0x99
a00c0064:	0000003c 	0x3c
a00c0068:	00000043 	sra	zero,zero,0x1
a00c006c:	00000090 	0x90
a00c0070:	00000041 	0x41
a00c0074:	000000fe 	0xfe
a00c0078:	00000051 	0x51
a00c007c:	00000063 	0x63
a00c0080:	000000ab 	0xab
a00c0084:	000000de 	0xde
a00c0088:	000000bb 	0xbb
a00c008c:	000000c5 	0xc5
a00c0090:	00000061 	0x61
a00c0094:	000000b7 	0xb7
a00c0098:	00000024 	and	zero,zero,zero
a00c009c:	0000006e 	0x6e
a00c00a0:	0000003a 	0x3a
a00c00a4:	00000042 	srl	zero,zero,0x1
a00c00a8:	0000004d 	break	0x0,0x1
a00c00ac:	000000d2 	0xd2
a00c00b0:	000000e0 	0xe0
a00c00b4:	00000006 	srlv	zero,zero,zero
a00c00b8:	00000049 	0x49
a00c00bc:	0000002e 	0x2e
a00c00c0:	000000ea 	0xea
a00c00c4:	00000009 	jalr	zero,zero
a00c00c8:	000000d1 	0xd1
a00c00cc:	00000092 	0x92
a00c00d0:	0000001c 	0x1c
a00c00d4:	000000fe 	0xfe
a00c00d8:	0000001d 	0x1d
a00c00dc:	000000eb 	0xeb
a00c00e0:	0000001c 	0x1c
a00c00e4:	000000b1 	0xb1
a00c00e8:	00000029 	0x29
a00c00ec:	000000a7 	0xa7
a00c00f0:	0000003e 	fst	zero
a00c00f4:	000000e8 	0xe8
a00c00f8:	00000082 	srl	zero,zero,0x2
a00c00fc:	00000035 	0x35
a00c0100:	000000f5 	0xf5
a00c0104:	0000002e 	0x2e
a00c0108:	000000bb 	0xbb
a00c010c:	00000044 	0x44
a00c0110:	00000084 	0x84
a00c0114:	000000e9 	0xe9
a00c0118:	0000009c 	0x9c
a00c011c:	00000070 	0x70
a00c0120:	00000026 	xor	zero,zero,zero
a00c0124:	000000b4 	0xb4
a00c0128:	0000005f 	0x5f
a00c012c:	0000007e 	0x7e
a00c0130:	00000041 	0x41
a00c0134:	00000039 	0x39
a00c0138:	00000091 	0x91
a00c013c:	000000d6 	0xd6
a00c0140:	00000039 	0x39
a00c0144:	00000083 	sra	zero,zero,0x2
a00c0148:	00000053 	0x53
a00c014c:	00000039 	0x39
a00c0150:	000000f4 	0xf4
a00c0154:	0000009c 	0x9c
a00c0158:	00000084 	0x84
a00c015c:	0000005f 	0x5f
a00c0160:	0000008b 	0x8b
a00c0164:	000000bd 	0xbd
a00c0168:	000000f9 	0xf9
a00c016c:	00000028 	0x28
a00c0170:	0000003b 	0x3b
a00c0174:	0000001f 	0x1f
a00c0178:	000000f8 	0xf8
a00c017c:	00000097 	0x97
a00c0180:	000000ff 	0xff
a00c0184:	000000de 	0xde
a00c0188:	00000005 	0x5
a00c018c:	00000098 	0x98
a00c0190:	0000000f 	0xf
a00c0194:	000000ef 	0xef
a00c0198:	0000002f 	0x2f
a00c019c:	00000011 	mthi	zero
a00c01a0:	0000008b 	0x8b
a00c01a4:	0000005a 	0x5a
a00c01a8:	0000000a 	0xa
a00c01ac:	0000006d 	0x6d
a00c01b0:	0000001f 	0x1f
a00c01b4:	0000006d 	0x6d
a00c01b8:	00000036 	0x36
a00c01bc:	0000007e 	0x7e
a00c01c0:	000000cf 	0xcf
a00c01c4:	00000027 	nor	zero,zero,zero
a00c01c8:	000000cb 	0xcb
a00c01cc:	00000009 	jalr	zero,zero
a00c01d0:	000000b7 	0xb7
a00c01d4:	0000004f 	0x4f
a00c01d8:	00000046 	0x46
a00c01dc:	0000003f 	ust
a00c01e0:	00000066 	0x66
a00c01e4:	0000009e 	0x9e
a00c01e8:	0000005f 	0x5f
a00c01ec:	000000ea 	0xea
a00c01f0:	0000002d 	0x2d
a00c01f4:	00000075 	0x75
a00c01f8:	00000027 	nor	zero,zero,zero
a00c01fc:	000000ba 	0xba
a00c0200:	000000c7 	0xc7
a00c0204:	000000eb 	0xeb
a00c0208:	000000e5 	0xe5
a00c020c:	000000f1 	0xf1
a00c0210:	0000007b 	0x7b
a00c0214:	0000003d 	0x3d
a00c0218:	00000007 	srav	zero,zero,zero
a00c021c:	00000039 	0x39
a00c0220:	000000f7 	0xf7
a00c0224:	0000008a 	0x8a
a00c0228:	00000052 	0x52
a00c022c:	00000092 	0x92
a00c0230:	000000ea 	0xea
a00c0234:	0000006b 	0x6b
a00c0238:	000000fb 	0xfb
a00c023c:	0000005f 	0x5f
a00c0240:	000000b1 	0xb1
a00c0244:	0000001f 	0x1f
a00c0248:	0000008d 	break	0x0,0x2
a00c024c:	0000005d 	0x5d
a00c0250:	00000008 	jr	zero
a00c0254:	00000056 	0x56
a00c0258:	00000003 	sra	zero,zero,0x0
a00c025c:	00000030 	0x30
a00c0260:	00000046 	0x46
a00c0264:	000000fc 	0xfc
a00c0268:	0000007b 	0x7b
a00c026c:	0000006b 	0x6b
a00c0270:	000000ab 	0xab
a00c0274:	000000f0 	0xf0
a00c0278:	000000cf 	0xcf
a00c027c:	000000bc 	0xbc
a00c0280:	00000020 	add	zero,zero,zero
a00c0284:	0000009a 	0x9a
a00c0288:	000000f4 	0xf4
a00c028c:	00000036 	0x36
a00c0290:	0000001d 	0x1d
a00c0294:	000000a9 	0xa9
a00c0298:	000000e3 	0xe3
a00c029c:	00000091 	0x91
a00c02a0:	00000061 	0x61
a00c02a4:	0000005e 	0x5e
a00c02a8:	000000e6 	0xe6
a00c02ac:	0000001b 	divu	zero,zero,zero
a00c02b0:	00000008 	jr	zero
a00c02b4:	00000065 	0x65
a00c02b8:	00000099 	0x99
a00c02bc:	00000085 	0x85
a00c02c0:	0000005f 	0x5f
a00c02c4:	00000014 	0x14
a00c02c8:	000000a0 	0xa0
a00c02cc:	00000068 	0x68
a00c02d0:	00000040 	sll	zero,zero,0x1
a00c02d4:	0000008d 	break	0x0,0x2
a00c02d8:	000000ff 	0xff
a00c02dc:	000000d8 	0xd8
a00c02e0:	00000080 	sll	zero,zero,0x2
a00c02e4:	0000004d 	break	0x0,0x1
a00c02e8:	00000073 	0x73
a00c02ec:	00000027 	nor	zero,zero,zero
a00c02f0:	00000031 	0x31
a00c02f4:	00000006 	srlv	zero,zero,zero
a00c02f8:	00000006 	srlv	zero,zero,zero
a00c02fc:	00000015 	0x15
a00c0300:	00000056 	0x56
a00c0304:	000000ca 	0xca
a00c0308:	00000073 	0x73
a00c030c:	000000a8 	0xa8
a00c0310:	000000c9 	0xc9
a00c0314:	00000060 	0x60
a00c0318:	000000e2 	0xe2
a00c031c:	0000007b 	0x7b
a00c0320:	000000c0 	sll	zero,zero,0x3
a00c0324:	0000008c 	syscall	0x2
a00c0328:	0000006b 	0x6b
a00c032c:	00000000 	nop
a00c0330:	00000001 	0x1
a00c0334:	00000064 	0x64
a00c0338:	5e303031 	0x5e303031
a00c033c:	3d352e32 	0x3d352e32
a00c0340:	0a662500 	j	a9989400 <_end+0x98c8d48>
a00c0344:	28676c00 	slti	a3,v1,27648
a00c0348:	30303031 	andi	s0,at,0x3031
a00c034c:	25003d29 	addiu	zero,t0,15657
a00c0350:	00000a66 	0xa66
a00c0354:	3f800000 	0x3f800000
a00c0358:	3d2aaaab 	0x3d2aaaab
a00c035c:	bab60b61 	swr	s6,2913(s5)
a00c0360:	37d00d01 	ori	s0,s8,0xd01
a00c0364:	b493f27c 	0xb493f27c
a00c0368:	310f74f6 	andi	t7,t0,0x74f6
a00c036c:	ad47d74e 	sw	a3,-10418(t2)
a00c0370:	3f000000 	0x3f000000
a00c0374:	be2aaaab 	0xbe2aaaab
a00c0378:	3c088889 	lui	t0,0x8889
a00c037c:	b9500d01 	swr	s0,3329(t2)
a00c0380:	3638ef1b 	ori	t8,s1,0xef1b
a00c0384:	b2d72f34 	spawn	ab5cbcd0 <_end+0xb50b618>
a00c0388:	2f2ec9d3 	sltiu	t6,t9,-13869
a00c038c:	3fc90f00 	0x3fc90f00
a00c0390:	40490f00 	0x40490f00
a00c0394:	4096cb00 	0x4096cb00
a00c0398:	40c90f00 	0x40c90f00
a00c039c:	40fb5300 	0x40fb5300
a00c03a0:	4116cb00 	0x4116cb00
a00c03a4:	412fed00 	0x412fed00
a00c03a8:	41490f00 	0x41490f00
a00c03ac:	41623100 	0x41623100
a00c03b0:	417b5300 	0x417b5300
a00c03b4:	418a3a00 	0x418a3a00
a00c03b8:	4196cb00 	0x4196cb00
a00c03bc:	41a35c00 	0x41a35c00
a00c03c0:	41afed00 	0x41afed00
a00c03c4:	41bc7e00 	0x41bc7e00
a00c03c8:	41c90f00 	0x41c90f00
a00c03cc:	41d5a000 	0x41d5a000
a00c03d0:	41e23100 	0x41e23100
a00c03d4:	41eec200 	0x41eec200
a00c03d8:	41fb5300 	0x41fb5300
a00c03dc:	4203f200 	c0	0x3f200
a00c03e0:	420a3a00 	c0	0xa3a00
a00c03e4:	42108300 	c0	0x108300
a00c03e8:	4216cb00 	c0	0x16cb00
a00c03ec:	421d1400 	c0	0x1d1400
a00c03f0:	42235c00 	c0	0x235c00
a00c03f4:	4229a500 	c0	0x29a500
a00c03f8:	422fed00 	c0	0x2fed00
a00c03fc:	42363600 	c0	0x363600
a00c0400:	423c7e00 	c0	0x3c7e00
a00c0404:	4242c700 	c0	0x42c700
a00c0408:	42490f00 	c0	0x490f00
a00c040c:	00000000 	nop
a00c0410:	43800000 	c0	0x1800000
a00c0414:	3f22f984 	0x3f22f984
a00c0418:	3fc90f80 	0x3fc90f80
a00c041c:	37354443 	ori	s5,t9,0x4443
a00c0420:	37354400 	ori	s5,t9,0x4400
a00c0424:	2e85a308 	sltiu	a1,s4,-23800
a00c0428:	2e85a300 	sltiu	a1,s4,-23808
a00c042c:	248d3132 	addiu	t5,a0,12594
a00c0430:	00000004 	sllv	zero,zero,zero
a00c0434:	00000007 	srav	zero,zero,zero
a00c0438:	00000009 	jalr	zero,zero
a00c043c:	3fc90000 	0x3fc90000
a00c0440:	39f00000 	xori	s0,t7,0x0
a00c0444:	37da0000 	ori	k0,s8,0x0
a00c0448:	33a20000 	andi	v0,sp,0x0
a00c044c:	2e840000 	sltiu	a0,s4,0
a00c0450:	2b500000 	slti	s0,k0,0
a00c0454:	27c20000 	addiu	v0,s8,0
a00c0458:	22d00000 	addi	s0,s6,0
a00c045c:	1fc40000 	0x1fc40000
a00c0460:	1bc60000 	0x1bc60000
a00c0464:	17440000 	bne	k0,a0,a00c0468 <two25>
a00c0468:	4c000000 	squash	a0000000 <_gp-0xc0000>
a00c046c:	33000000 	andi	zero,t8,0x0
a00c0470:	7149f2ca 	0x7149f2ca
a00c0474:	0da24260 	jal	a6890980 <_end+0x67d02c8>
a00c0478:	3b800000 	xori	zero,gp,0x0
	...
a00c0488:	646f626e 	0x646f626e
a00c048c:	203d2079 	addi	sp,at,8313
a00c0490:	202c6425 	addi	t4,at,25637
a00c0494:	6e6d756e 	0x6e6d756e
a00c0498:	7365646f 	0x7365646f
a00c049c:	25203d20 	addiu	zero,t1,15648
a00c04a0:	62000a64 	0x62000a64
a00c04a4:	6569646f 	0x6569646f
a00c04a8:	72632073 	0x72632073
a00c04ac:	65746165 	0x65746165
a00c04b0:	000a2064 	0xa2064
a00c04b4:	69646f42 	0x69646f42
a00c04b8:	70207365 	0x70207365
a00c04bc:	25207265 	addiu	zero,t1,29285
a00c04c0:	203d2064 	addi	sp,at,8292
a00c04c4:	000a6425 	0xa6425
a00c04c8:	65737341 	0x65737341
a00c04cc:	6f697472 	0x6f697472
a00c04d0:	6146206e 	0x6146206e
a00c04d4:	72756c69 	0x72756c69
a00c04d8:	25232065 	addiu	v1,t1,8293
a00c04dc:	65740064 	0x65740064
a00c04e0:	61647473 	0x61647473
a00c04e4:	203a6174 	addi	k0,at,24948
a00c04e8:	20746f6e 	addi	s4,v1,28526
a00c04ec:	756f6e65 	jalx	a5bdb994 <_end+0x5b1b2dc>
a00c04f0:	6d206867 	0x6d206867
a00c04f4:	726f6d65 	0x726f6d65
a00c04f8:	78000a79 	0x78000a79
a00c04fc:	6625203a 	0x6625203a
a00c0500:	203a7909 	addi	k0,at,30985
a00c0504:	000a6625 	0xa6625
a00c0508:	6e617278 	0x6e617278
a00c050c:	25203a64 	addiu	zero,t1,14948
a00c0510:	72790966 	0x72790966
a00c0514:	3a646e61 	xori	a0,s3,0x6e61
a00c0518:	09662520 	j	a5989480 <_end+0x58c8dc8>
a00c051c:	65657300 	0x65657300
a00c0520:	25203a64 	addiu	zero,t1,14948
a00c0524:	41000a66 	bc0f	a00c2ec0 <_end+0x2808>
a00c0528:	72657373 	0x72657373
a00c052c:	6e6f6974 	0x6e6f6974
a00c0530:	69614620 	0x69614620
a00c0534:	6572756c 	0x6572756c
a00c0538:	64252320 	0x64252320
a00c053c:	20642500 	addi	a0,v1,9472
a00c0540:	4c4c554e 	squash	a1315538 <_end+0x1254e80>
a00c0544:	45525420 	0x45525420
a00c0548:	00000a45 	0xa45
	...
a00c0570:	9ee75616 	0x9ee75616
a00c0574:	bcd203af 	0xbcd203af
a00c0578:	9ee75616 	0x9ee75616
a00c057c:	3cd203af 	0x3cd203af
a00c0580:	9ee75616 	0x9ee75616
a00c0584:	bcd203af 	0xbcd203af
a00c0588:	9ee75616 	0x9ee75616
a00c058c:	3cd203af 	0x3cd203af
a00c0590:	66666666 	0x66666666
a00c0594:	3fe66666 	0x3fe66666
a00c0598:	66666666 	0x66666666
a00c059c:	3fe66666 	0x3fe66666
a00c05a0:	66666666 	0x66666666
a00c05a4:	3fe66666 	0x3fe66666
	...
a00c05b4:	40d069c0 	0x40d069c0
a00c05b8:	ffc00000 	0xffc00000
a00c05bc:	41dfffff 	0x41dfffff
a00c05c0:	ffc00000 	0xffc00000
a00c05c4:	41dfffff 	0x41dfffff
a00c05c8:	ffc00000 	0xffc00000
a00c05cc:	41dfffff 	0x41dfffff
a00c05d0:	47ae147c 	c1	0x1ae147c
a00c05d4:	3f647ae1 	0x3f647ae1
a00c05d8:	9999999a 	lwr	t9,-26214(t4)
a00c05dc:	3f799999 	0x3f799999
a00c05e0:	9999999a 	lwr	t9,-26214(t4)
a00c05e4:	3f799999 	0x3f799999
a00c05e8:	00000000 	nop
a00c05ec:	40c38800 	ctc0	v1,$17
a00c05f0:	00000000 	nop
a00c05f4:	40c38800 	ctc0	v1,$17
a00c05f8:	00000000 	nop
a00c05fc:	40c38800 	ctc0	v1,$17
a00c0600:	00000000 	nop
a00c0604:	40c38800 	ctc0	v1,$17
a00c0608:	00000000 	nop
a00c060c:	40c38800 	ctc0	v1,$17
a00c0610:	00000000 	nop
a00c0614:	40c38800 	ctc0	v1,$17
a00c0618:	9999999a 	lwr	t9,-26214(t4)
a00c061c:	3f899999 	0x3f899999
a00c0620:	00000000 	nop
a00c0624:	40c38800 	ctc0	v1,$17
a00c0628:	00000000 	nop
a00c062c:	40c38800 	ctc0	v1,$17
a00c0630:	00000000 	nop
a00c0634:	40c38800 	ctc0	v1,$17
a00c0638:	00000000 	nop
a00c063c:	405ec000 	cfc0	s8,$24
a00c0640:	7f3321d2 	0x7f3321d2
a00c0644:	3fe2d97c 	0x3fe2d97c
a00c0648:	d916872b 	0xd916872b
a00c064c:	3feff7ce 	0x3feff7ce
a00c0650:	55555555 	pslice_exit	a5555554 <_end+0x5494e9c>
a00c0654:	bfe55555 	0xbfe55555
a00c0658:	9999999a 	lwr	t9,-26214(t4)
a00c065c:	3fb99999 	0x3fb99999
a00c0660:	00000000 	nop
a00c0664:	405ec000 	cfc0	s8,$24
a00c0668:	7f3321d2 	0x7f3321d2
a00c066c:	3fe2d97c 	0x3fe2d97c
a00c0670:	d916872b 	0xd916872b
a00c0674:	3feff7ce 	0x3feff7ce
a00c0678:	55555555 	pslice_exit	a5555554 <_end+0x5494e9c>
a00c067c:	bfe55555 	0xbfe55555
a00c0680:	d916872b 	0xd916872b
a00c0684:	3feff7ce 	0x3feff7ce
a00c0688:	9999999a 	lwr	t9,-26214(t4)
a00c068c:	3fb99999 	0x3fb99999
a00c0690:	00000000 	nop
a00c0694:	408f4000 	mtc0	t7,c0_badvaddr
	...

Disassembly of section .bss:

a00c06a0 <_bss>:
	...

a00c06b8 <_ebss>:
	...
